

Microchip MPLAB XC8 Assembler V2.45 build 20230818022343 
                                                                                               Wed Jan 03 02:57:21 2024

Microchip MPLAB XC8 C Compiler v2.45 (Free license) build 20230818022343 Og1 
     1                           	processor	16F877A
     2                           	pagewidth 120
     3                           	opt	flic
     4                           	psect	idataBANK1,global,class=CODE,delta=2,noexec
     5                           	psect	cinit,global,class=CODE,merge=1,delta=2
     6                           	psect	bssBANK0,global,class=BANK0,space=1,delta=1,noexec
     7                           	psect	bssBANK1,global,class=BANK1,space=1,delta=1,noexec
     8                           	psect	dataBANK1,global,class=BANK1,space=1,delta=1,noexec
     9                           	psect	inittext,global,class=CODE,delta=2
    10                           	psect	cstackBANK1,global,class=BANK1,space=1,delta=1,noexec
    11                           	psect	cstackCOMMON,global,class=COMMON,space=1,delta=1,noexec
    12                           	psect	cstackBANK0,global,class=BANK0,space=1,delta=1,noexec
    13                           	psect	maintext,global,class=CODE,split=1,delta=2
    14                           	psect	text1,local,class=CODE,merge=1,delta=2
    15                           	psect	text2,local,class=CODE,merge=1,delta=2
    16                           	psect	text3,local,class=CODE,merge=1,delta=2,group=1
    17                           	psect	text4,local,class=CODE,merge=1,delta=2
    18                           	psect	text5,local,class=CODE,merge=1,delta=2,group=1
    19                           	psect	text6,local,class=CODE,merge=1,delta=2,group=1
    20                           	psect	text7,local,class=CODE,merge=1,delta=2,group=1
    21                           	psect	text8,local,class=CODE,merge=1,delta=2,group=1
    22                           	psect	text9,local,class=CODE,merge=1,delta=2,group=1
    23                           	psect	text10,local,class=CODE,merge=1,delta=2,group=1
    24                           	psect	text11,local,class=CODE,merge=1,delta=2,group=1
    25                           	psect	text12,local,class=CODE,merge=1,delta=2,group=1
    26                           	psect	text13,local,class=CODE,merge=1,delta=2
    27                           	psect	text14,local,class=CODE,merge=1,delta=2
    28                           	psect	text15,local,class=CODE,merge=1,delta=2
    29                           	psect	config,global,abs,ovrld,class=CONFIG,space=4,delta=2,noexec
    30                           	dabs	1,0x7E,2
    31     0000                     
    32                           ; Generated 22/03/2023 GMT
    33                           ; 
    34                           ; Copyright © 2023, Microchip Technology Inc. and its subsidiaries ("Microchip")
    35                           ; All rights reserved.
    36                           ; 
    37                           ; This software is developed by Microchip Technology Inc. and its subsidiaries ("Microch
      +                          ip").
    38                           ; 
    39                           ; Redistribution and use in source and binary forms, with or without modification, are
    40                           ; permitted provided that the following conditions are met:
    41                           ; 
    42                           ;     1. Redistributions of source code must retain the above copyright notice, this lis
      +                          t of
    43                           ;        conditions and the following disclaimer.
    44                           ; 
    45                           ;     2. Redistributions in binary form must reproduce the above copyright notice, this 
      +                          list
    46                           ;        of conditions and the following disclaimer in the documentation and/or other
    47                           ;        materials provided with the distribution. Publication is not required when
    48                           ;        this file is used in an embedded application.
    49                           ; 
    50                           ;     3. Microchip's name may not be used to endorse or promote products derived from th
      +                          is
    51                           ;        software without specific prior written permission.
    52                           ; 
    53                           ; THIS SOFTWARE IS PROVIDED BY MICROCHIP "AS IS" AND ANY EXPRESS OR IMPLIED WARRANTIES,
    54                           ; INCLUDING, BUT NOT LIMITED TO, THE IMPLIED WARRANTIES OF MERCHANTABILITY AND FITNESS F
      +                          OR
    55                           ; PURPOSE ARE DISCLAIMED.  IN NO EVENT SHALL MICROCHIP BE LIABLE FOR ANY DIRECT, INDIREC
      +                          T,
    56                           ; INCIDENTAL, SPECIAL, EXEMPLARY, OR CONSEQUENTIAL DAMAGES (INCLUDING BUT NOT LIMITED TO
    57                           ; PROCUREMENT OF SUBSTITUTE GOODS OR SERVICES; LOSS OF USE, DATA OR PROFITS; OR BUSINESS
    58                           ; INTERRUPTION) HOWSOEVER CAUSED AND ON ANY THEORY OF LIABILITY, WHETHER IN CONTRACT, ST
      +                          RICT
    59                           ; LIABILITY, OR TORT (INCLUDING NEGLIGENCE OR OTHERWISE) ARISING IN ANY WAY OUT OF THE U
      +                          SE OF
    60                           ; THIS SOFTWARE, EVEN IF ADVISED OF THE POSSIBILITY OF SUCH DAMAGE.
    61                           ; 
    62                           ; 
    63                           ; Code-generator required, PIC16F877A Definitions
    64                           ; 
    65                           ; SFR Addresses
    66     0000                     	;# 
    67     0001                     	;# 
    68     0002                     	;# 
    69     0003                     	;# 
    70     0004                     	;# 
    71     0005                     	;# 
    72     0006                     	;# 
    73     0007                     	;# 
    74     0008                     	;# 
    75     0009                     	;# 
    76     000A                     	;# 
    77     000B                     	;# 
    78     000C                     	;# 
    79     000D                     	;# 
    80     000E                     	;# 
    81     000E                     	;# 
    82     000F                     	;# 
    83     0010                     	;# 
    84     0011                     	;# 
    85     0012                     	;# 
    86     0013                     	;# 
    87     0014                     	;# 
    88     0015                     	;# 
    89     0015                     	;# 
    90     0016                     	;# 
    91     0017                     	;# 
    92     0018                     	;# 
    93     0019                     	;# 
    94     001A                     	;# 
    95     001B                     	;# 
    96     001B                     	;# 
    97     001C                     	;# 
    98     001D                     	;# 
    99     001E                     	;# 
   100     001F                     	;# 
   101     0081                     	;# 
   102     0085                     	;# 
   103     0086                     	;# 
   104     0087                     	;# 
   105     0088                     	;# 
   106     0089                     	;# 
   107     008C                     	;# 
   108     008D                     	;# 
   109     008E                     	;# 
   110     0091                     	;# 
   111     0092                     	;# 
   112     0093                     	;# 
   113     0094                     	;# 
   114     0098                     	;# 
   115     0099                     	;# 
   116     009C                     	;# 
   117     009D                     	;# 
   118     009E                     	;# 
   119     009F                     	;# 
   120     010C                     	;# 
   121     010D                     	;# 
   122     010E                     	;# 
   123     010F                     	;# 
   124     018C                     	;# 
   125     018D                     	;# 
   126     0000                     	;# 
   127     0001                     	;# 
   128     0002                     	;# 
   129     0003                     	;# 
   130     0004                     	;# 
   131     0005                     	;# 
   132     0006                     	;# 
   133     0007                     	;# 
   134     0008                     	;# 
   135     0009                     	;# 
   136     000A                     	;# 
   137     000B                     	;# 
   138     000C                     	;# 
   139     000D                     	;# 
   140     000E                     	;# 
   141     000E                     	;# 
   142     000F                     	;# 
   143     0010                     	;# 
   144     0011                     	;# 
   145     0012                     	;# 
   146     0013                     	;# 
   147     0014                     	;# 
   148     0015                     	;# 
   149     0015                     	;# 
   150     0016                     	;# 
   151     0017                     	;# 
   152     0018                     	;# 
   153     0019                     	;# 
   154     001A                     	;# 
   155     001B                     	;# 
   156     001B                     	;# 
   157     001C                     	;# 
   158     001D                     	;# 
   159     001E                     	;# 
   160     001F                     	;# 
   161     0081                     	;# 
   162     0085                     	;# 
   163     0086                     	;# 
   164     0087                     	;# 
   165     0088                     	;# 
   166     0089                     	;# 
   167     008C                     	;# 
   168     008D                     	;# 
   169     008E                     	;# 
   170     0091                     	;# 
   171     0092                     	;# 
   172     0093                     	;# 
   173     0094                     	;# 
   174     0098                     	;# 
   175     0099                     	;# 
   176     009C                     	;# 
   177     009D                     	;# 
   178     009E                     	;# 
   179     009F                     	;# 
   180     010C                     	;# 
   181     010D                     	;# 
   182     010E                     	;# 
   183     010F                     	;# 
   184     018C                     	;# 
   185     018D                     	;# 
   186                           
   187                           	psect	idataBANK1
   188     0024                     __pidataBANK1:
   189                           
   190                           ;initializer for _BATT_MSG3
   191     0024  3442               	retlw	66
   192     0025  3441               	retlw	65
   193     0026  3454               	retlw	84
   194     0027  3454               	retlw	84
   195     0028  3445               	retlw	69
   196     0029  3452               	retlw	82
   197     002A  3459               	retlw	89
   198     002B  3420               	retlw	32
   199     002C  3448               	retlw	72
   200     002D  3449               	retlw	73
   201     002E  3447               	retlw	71
   202     002F  3448               	retlw	72
   203     0030  3420               	retlw	32
   204     0031  3420               	retlw	32
   205     0032  3400               	retlw	0
   206     0033  3400               	retlw	0
   207                           
   208                           ;initializer for _BATT_MSG2
   209     0034  3442               	retlw	66
   210     0035  3441               	retlw	65
   211     0036  3454               	retlw	84
   212     0037  3454               	retlw	84
   213     0038  3445               	retlw	69
   214     0039  3452               	retlw	82
   215     003A  3459               	retlw	89
   216     003B  3420               	retlw	32
   217     003C  344E               	retlw	78
   218     003D  344F               	retlw	79
   219     003E  3452               	retlw	82
   220     003F  344D               	retlw	77
   221     0040  3441               	retlw	65
   222     0041  344C               	retlw	76
   223     0042  3400               	retlw	0
   224     0043  3400               	retlw	0
   225                           
   226                           ;initializer for _BATT_MSG1
   227     0044  3442               	retlw	66
   228     0045  3441               	retlw	65
   229     0046  3454               	retlw	84
   230     0047  3454               	retlw	84
   231     0048  3445               	retlw	69
   232     0049  3452               	retlw	82
   233     004A  3459               	retlw	89
   234     004B  3420               	retlw	32
   235     004C  344C               	retlw	76
   236     004D  344F               	retlw	79
   237     004E  3457               	retlw	87
   238     004F  3420               	retlw	32
   239     0050  3420               	retlw	32
   240     0051  3420               	retlw	32
   241     0052  3400               	retlw	0
   242     0053  3400               	retlw	0
   243                           
   244                           ;initializer for _array
   245     0054  3442               	retlw	66
   246     0055  3441               	retlw	65
   247     0056  3454               	retlw	84
   248     0057  3454               	retlw	84
   249     0058  3456               	retlw	86
   250     0059  344F               	retlw	79
   251     005A  344C               	retlw	76
   252     005B  3454               	retlw	84
   253     005C  343A               	retlw	58
   254     005D  3420               	retlw	32
   255     005E  3420               	retlw	32
   256     005F  3420               	retlw	32
   257     0060  3420               	retlw	32
   258     0061  3456               	retlw	86
   259     0062  3400               	retlw	0
   260     0063  3400               	retlw	0
   261     0008                     _PORTD	set	8
   262     0007                     _PORTC	set	7
   263     0006                     _PORTB	set	6
   264     0088                     _TRISD	set	136
   265     0087                     _TRISC	set	135
   266     0086                     _TRISB	set	134
   267                           
   268                           	psect	cinit
   269     07E2                     start_initialization:	
   270                           ; #config settings
   271                           
   272     07E2                     __initialization:
   273                           
   274                           ; Initialize objects allocated to BANK1
   275     07E2  1383               	bcf	3,7	;select IRP bank0
   276     07E3  30E0               	movlw	low (__pdataBANK1+64)
   277     07E4  00FD               	movwf	btemp+-1
   278     07E5  3000               	movlw	high __pidataBANK1
   279     07E6  00FE               	movwf	btemp
   280     07E7  3024               	movlw	low __pidataBANK1
   281     07E8  00FF               	movwf	btemp+1
   282     07E9  30A0               	movlw	low __pdataBANK1
   283     07EA  0084               	movwf	4
   284     07EB  120A  158A  218A  120A  118A  	fcall	init_ram0
   285                           
   286                           ; Clear objects allocated to BANK1
   287     07F0  1683               	bsf	3,5	;RP0=1, select bank1
   288     07F1  1303               	bcf	3,6	;RP1=0, select bank1
   289     07F2  01E0               	clrf	__pbssBANK1& (0+127)
   290     07F3  01E1               	clrf	(__pbssBANK1+1)& (0+127)
   291     07F4  01E2               	clrf	(__pbssBANK1+2)& (0+127)
   292     07F5  01E3               	clrf	(__pbssBANK1+3)& (0+127)
   293     07F6  01E4               	clrf	(__pbssBANK1+4)& (0+127)
   294     07F7  01E5               	clrf	(__pbssBANK1+5)& (0+127)
   295     07F8  01E6               	clrf	(__pbssBANK1+6)& (0+127)
   296                           
   297                           ; Clear objects allocated to BANK0
   298     07F9  1283               	bcf	3,5	;RP0=0, select bank0
   299     07FA  1303               	bcf	3,6	;RP1=0, select bank0
   300     07FB  01EF               	clrf	__pbssBANK0& (0+127)
   301     07FC                     end_of_initialization:	
   302                           ;End of C runtime variable initialization code
   303                           
   304     07FC                     __end_of__initialization:
   305     07FC  0183               	clrf	3
   306     07FD  120A  158A  2978   	ljmp	_main	;jump to C main() function
   307                           
   308                           	psect	bssBANK0
   309     006F                     __pbssBANK0:
   310     006F                     _d2:
   311     006F                     	ds	1
   312                           
   313                           	psect	bssBANK1
   314     00E0                     __pbssBANK1:
   315     00E0                     _BATT_VAL:
   316     00E0                     	ds	4
   317     00E4                     _d0:
   318     00E4                     	ds	1
   319     00E5                     _d1:
   320     00E5                     	ds	1
   321     00E6                     _value:
   322     00E6                     	ds	1
   323                           
   324                           	psect	dataBANK1
   325     00A0                     __pdataBANK1:
   326     00A0                     _BATT_MSG3:
   327     00A0                     	ds	16
   328     00B0                     _BATT_MSG2:
   329     00B0                     	ds	16
   330     00C0                     _BATT_MSG1:
   331     00C0                     	ds	16
   332     00D0                     _array:
   333     00D0                     	ds	16
   334                           
   335                           	psect	inittext
   336     0986                     init_fetch0:	
   337                           ;	Called with low address in FSR and high address in W
   338                           
   339     0986  087E               	movf	btemp,w
   340     0987  008A               	movwf	10
   341     0988  087F               	movf	btemp+1,w
   342     0989  0082               	movwf	2
   343     098A                     init_ram0:	
   344                           ;Called with:
   345                           ;	high address of idata address in btemp 
   346                           ;	low address of idata address in btemp+1 
   347                           ;	low address of data in FSR
   348                           ;	high address + 1 of data in btemp-1
   349                           
   350     098A  120A  158A  2186  120A  158A  	fcall	init_fetch0
   351     098F  0080               	movwf	0
   352     0990  0A84               	incf	4,f
   353     0991  0804               	movf	4,w
   354     0992  067D               	xorwf	btemp+-1,w
   355     0993  1903               	btfsc	3,2
   356     0994  3400               	retlw	0
   357     0995  0AFF               	incf	btemp+1,f
   358     0996  1903               	btfsc	3,2
   359     0997  0AFE               	incf	btemp,f
   360     0998  298A               	goto	init_ram0
   361                           
   362                           	psect	cstackBANK1
   363     00E7                     __pcstackBANK1:
   364     00E7                     _LCD_output$688:
   365                           
   366                           ; 4 bytes @ 0x0
   367     00E7                     	ds	4
   368                           
   369                           	psect	cstackCOMMON
   370     0070                     __pcstackCOMMON:
   371     0070                     ?___flge:
   372     0070                     ?_LCD_PIC_init:	
   373                           ; 1 bit 
   374                           
   375     0070                     ?_keyscane:	
   376                           ; 1 bytes @ 0x0
   377                           
   378     0070                     ?_LCD_command:	
   379                           ; 1 bytes @ 0x0
   380                           
   381     0070                     ??_LCD_command:	
   382                           ; 1 bytes @ 0x0
   383                           
   384     0070                     ?_LCD_data:	
   385                           ; 1 bytes @ 0x0
   386                           
   387     0070                     ??_LCD_data:	
   388                           ; 1 bytes @ 0x0
   389                           
   390     0070                     ?_batt_msg:	
   391                           ; 1 bytes @ 0x0
   392                           
   393     0070                     ?_main:	
   394                           ; 1 bytes @ 0x0
   395                           
   396     0070                     ?__Umul8_16:	
   397                           ; 1 bytes @ 0x0
   398                           
   399     0070                     ?___wmul:	
   400                           ; 2 bytes @ 0x0
   401                           
   402     0070                     ?___fladd:	
   403                           ; 2 bytes @ 0x0
   404                           
   405     0070                     ?___fldiv:	
   406                           ; 4 bytes @ 0x0
   407                           
   408     0070                     __Umul8_16@multiplicand:	
   409                           ; 4 bytes @ 0x0
   410                           
   411     0070                     ___wmul@multiplier:	
   412                           ; 1 bytes @ 0x0
   413                           
   414     0070                     ___flge@ff1:	
   415                           ; 2 bytes @ 0x0
   416                           
   417     0070                     ___fladd@b:	
   418                           ; 4 bytes @ 0x0
   419                           
   420     0070                     ___fldiv@a:	
   421                           ; 4 bytes @ 0x0
   422                           
   423                           
   424                           ; 4 bytes @ 0x0
   425     0070                     	ds	2
   426     0072                     ??__Umul8_16:
   427     0072                     LCD_command@hex:	
   428                           ; 1 bytes @ 0x2
   429                           
   430     0072                     LCD_data@hex:	
   431                           ; 1 bytes @ 0x2
   432                           
   433     0072                     ___wmul@multiplicand:	
   434                           ; 1 bytes @ 0x2
   435                           
   436                           
   437                           ; 2 bytes @ 0x2
   438     0072                     	ds	1
   439     0073                     ??_LCD_PIC_init:
   440                           
   441                           ; 1 bytes @ 0x3
   442     0073                     	ds	1
   443     0074                     ??___wmul:
   444     0074                     ___wmul@product:	
   445                           ; 1 bytes @ 0x4
   446                           
   447     0074                     __Umul8_16@product:	
   448                           ; 2 bytes @ 0x4
   449                           
   450     0074                     ___flge@ff2:	
   451                           ; 2 bytes @ 0x4
   452                           
   453     0074                     ___fladd@a:	
   454                           ; 4 bytes @ 0x4
   455                           
   456     0074                     ___fldiv@b:	
   457                           ; 4 bytes @ 0x4
   458                           
   459                           
   460                           ; 4 bytes @ 0x4
   461     0074                     	ds	2
   462     0076                     __Umul8_16@word_mpld:
   463                           
   464                           ; 2 bytes @ 0x6
   465     0076                     	ds	2
   466     0078                     ??___flge:
   467     0078                     ??___fldiv:	
   468                           ; 1 bytes @ 0x8
   469                           
   470     0078                     ___fladd@signs:	
   471                           ; 1 bytes @ 0x8
   472                           
   473     0078                     __Umul8_16@multiplier:	
   474                           ; 1 bytes @ 0x8
   475                           
   476                           
   477                           ; 1 bytes @ 0x8
   478     0078                     	ds	1
   479     0079                     ___fladd@aexp:
   480                           
   481                           ; 1 bytes @ 0x9
   482     0079                     	ds	1
   483     007A                     ___fladd@bexp:
   484                           
   485                           ; 1 bytes @ 0xA
   486     007A                     	ds	1
   487     007B                     ___fladd@grs:
   488                           
   489                           ; 1 bytes @ 0xB
   490     007B                     	ds	1
   491     007C                     ??_batt_msg:
   492                           
   493                           ; 1 bytes @ 0xC
   494     007C                     	ds	1
   495     007D                     ??___flsub:
   496     007D                     keyscane@x:	
   497                           ; 1 bytes @ 0xD
   498                           
   499                           
   500                           ; 1 bytes @ 0xD
   501     007D                     	ds	1
   502     007E                     ??_main:
   503                           
   504                           	psect	cstackBANK0
   505     0020                     __pcstackBANK0:	
   506                           ; 1 bytes @ 0xE
   507                           
   508     0020                     ??___fladd:
   509     0020                     batt_msg@x:	
   510                           ; 1 bytes @ 0x0
   511                           
   512     0020                     ___fldiv@rem:	
   513                           ; 1 bytes @ 0x0
   514                           
   515                           
   516                           ; 4 bytes @ 0x0
   517     0020                     	ds	1
   518     0021                     batt_msg@x_76:
   519                           
   520                           ; 1 bytes @ 0x1
   521     0021                     	ds	1
   522     0022                     batt_msg@x_77:
   523                           
   524                           ; 1 bytes @ 0x2
   525     0022                     	ds	2
   526     0024                     ___fldiv@sign:
   527                           
   528                           ; 1 bytes @ 0x4
   529     0024                     	ds	1
   530     0025                     ___fldiv@new_exp:
   531                           
   532                           ; 2 bytes @ 0x5
   533     0025                     	ds	2
   534     0027                     ___fldiv@grs:
   535                           
   536                           ; 4 bytes @ 0x7
   537     0027                     	ds	4
   538     002B                     ___fldiv@bexp:
   539                           
   540                           ; 1 bytes @ 0xB
   541     002B                     	ds	1
   542     002C                     ___fldiv@aexp:
   543                           
   544                           ; 1 bytes @ 0xC
   545     002C                     	ds	1
   546     002D                     ?___fltol:
   547     002D                     ___fltol@f1:	
   548                           ; 4 bytes @ 0xD
   549                           
   550                           
   551                           ; 4 bytes @ 0xD
   552     002D                     	ds	4
   553     0031                     ??___fltol:
   554                           
   555                           ; 1 bytes @ 0x11
   556     0031                     	ds	4
   557     0035                     ___fltol@sign1:
   558                           
   559                           ; 1 bytes @ 0x15
   560     0035                     	ds	1
   561     0036                     ___fltol@exp1:
   562                           
   563                           ; 1 bytes @ 0x16
   564     0036                     	ds	1
   565     0037                     ?___xxtofl:
   566     0037                     ___xxtofl@val:	
   567                           ; 4 bytes @ 0x17
   568                           
   569                           
   570                           ; 4 bytes @ 0x17
   571     0037                     	ds	4
   572     003B                     ??___xxtofl:
   573                           
   574                           ; 1 bytes @ 0x1B
   575     003B                     	ds	4
   576     003F                     ___xxtofl@sign:
   577                           
   578                           ; 1 bytes @ 0x1F
   579     003F                     	ds	1
   580     0040                     ___xxtofl@exp:
   581                           
   582                           ; 1 bytes @ 0x20
   583     0040                     	ds	1
   584     0041                     ___xxtofl@arg:
   585                           
   586                           ; 4 bytes @ 0x21
   587     0041                     	ds	4
   588     0045                     ?___flsub:
   589     0045                     ___flsub@a:	
   590                           ; 4 bytes @ 0x25
   591                           
   592                           
   593                           ; 4 bytes @ 0x25
   594     0045                     	ds	4
   595     0049                     ___flsub@b:
   596                           
   597                           ; 4 bytes @ 0x29
   598     0049                     	ds	4
   599     004D                     ?___flmul:
   600     004D                     ___flmul@b:	
   601                           ; 4 bytes @ 0x2D
   602                           
   603                           
   604                           ; 4 bytes @ 0x2D
   605     004D                     	ds	4
   606     0051                     ___flmul@a:
   607                           
   608                           ; 4 bytes @ 0x31
   609     0051                     	ds	4
   610     0055                     ??___flmul:
   611                           
   612                           ; 1 bytes @ 0x35
   613     0055                     	ds	5
   614     005A                     ___flmul@sign:
   615                           
   616                           ; 1 bytes @ 0x3A
   617     005A                     	ds	1
   618     005B                     ___flmul@grs:
   619                           
   620                           ; 4 bytes @ 0x3B
   621     005B                     	ds	4
   622     005F                     ___flmul@aexp:
   623                           
   624                           ; 1 bytes @ 0x3F
   625     005F                     	ds	1
   626     0060                     ___flmul@bexp:
   627                           
   628                           ; 1 bytes @ 0x40
   629     0060                     	ds	1
   630     0061                     ___flmul@prod:
   631                           
   632                           ; 4 bytes @ 0x41
   633     0061                     	ds	4
   634     0065                     ___flmul@temp:
   635                           
   636                           ; 2 bytes @ 0x45
   637     0065                     	ds	2
   638     0067                     ?_LCD_output:
   639     0067                     LCD_output@i:	
   640                           ; 1 bytes @ 0x47
   641                           
   642                           
   643                           ; 4 bytes @ 0x47
   644     0067                     	ds	4
   645     006B                     ??_LCD_output:
   646                           
   647                           ; 1 bytes @ 0x4B
   648     006B                     	ds	2
   649     006D                     ??_keyscane:
   650                           
   651                           ; 1 bytes @ 0x4D
   652     006D                     	ds	2
   653                           
   654                           	psect	maintext
   655     0978                     __pmaintext:	
   656 ;;
   657 ;;Main: autosize = 0, tempsize = 0, incstack = 0, save=0
   658 ;;
   659 ;; *************** function _main *****************
   660 ;; Defined at:
   661 ;;		line 38 in file "LCD_batt.c"
   662 ;; Parameters:    Size  Location     Type
   663 ;;		None
   664 ;; Auto vars:     Size  Location     Type
   665 ;;		None
   666 ;; Return value:  Size  Location     Type
   667 ;;                  1    wreg      void 
   668 ;; Registers used:
   669 ;;		wreg, fsr0l, fsr0h, status,2, status,0, btemp+1, pclath, cstack
   670 ;; Tracked objects:
   671 ;;		On entry : B00/0
   672 ;;		On exit  : 0/0
   673 ;;		Unchanged: 0/0
   674 ;; Data sizes:     COMMON   BANK0   BANK1   BANK3   BANK2
   675 ;;      Params:         0       0       0       0       0
   676 ;;      Locals:         0       0       0       0       0
   677 ;;      Temps:          0       0       0       0       0
   678 ;;      Totals:         0       0       0       0       0
   679 ;;Total ram usage:        0 bytes
   680 ;; Hardware stack levels required when called: 4
   681 ;; This function calls:
   682 ;;		_LCD_PIC_init
   683 ;;		_keyscane
   684 ;; This function is called by:
   685 ;;		Startup code after reset
   686 ;; This function uses a non-reentrant model
   687 ;;
   688                           
   689     0978                     _main:	
   690                           ;psect for function _main
   691                           
   692     0978                     l2251:	
   693                           ;incstack = 0
   694                           ; Regs used in _main: [wreg-fsr0h+status,2+status,0+btemp+1+pclath+cstack]
   695                           
   696                           
   697                           ;LCD_batt.c: 39:     LCD_PIC_init();
   698     0978  120A  158A  221D  120A  158A  	fcall	_LCD_PIC_init
   699     097D                     l2253:
   700                           
   701                           ;LCD_batt.c: 41:         keyscane();
   702     097D  120A  158A  26A2  120A  158A  	fcall	_keyscane
   703     0982  297D               	goto	l2253
   704     0983  120A  118A  2800   	ljmp	start
   705     0986                     __end_of_main:
   706                           
   707                           	psect	text1
   708     0EA2                     __ptext1:	
   709 ;; *************** function _keyscane *****************
   710 ;; Defined at:
   711 ;;		line 45 in file "LCD_batt.c"
   712 ;; Parameters:    Size  Location     Type
   713 ;;		None
   714 ;; Auto vars:     Size  Location     Type
   715 ;;  x               1   13[COMMON] unsigned char 
   716 ;; Return value:  Size  Location     Type
   717 ;;                  1    wreg      void 
   718 ;; Registers used:
   719 ;;		wreg, fsr0l, fsr0h, status,2, status,0, btemp+1, pclath, cstack
   720 ;; Tracked objects:
   721 ;;		On entry : 0/0
   722 ;;		On exit  : 0/0
   723 ;;		Unchanged: 0/0
   724 ;; Data sizes:     COMMON   BANK0   BANK1   BANK3   BANK2
   725 ;;      Params:         0       0       0       0       0
   726 ;;      Locals:         1       0       0       0       0
   727 ;;      Temps:          0       2       0       0       0
   728 ;;      Totals:         1       2       0       0       0
   729 ;;Total ram usage:        3 bytes
   730 ;; Hardware stack levels used: 1
   731 ;; Hardware stack levels required when called: 3
   732 ;; This function calls:
   733 ;;		_LCD_command
   734 ;;		_LCD_data
   735 ;;		_LCD_output
   736 ;;		___fladd
   737 ;;		___flge
   738 ;;		___flsub
   739 ;;		_batt_msg
   740 ;; This function is called by:
   741 ;;		_main
   742 ;; This function uses a non-reentrant model
   743 ;;
   744                           
   745     0EA2                     _keyscane:	
   746                           ;psect for function _keyscane
   747                           
   748     0EA2                     l2191:	
   749                           ;incstack = 0
   750                           ; Regs used in _keyscane: [wreg-fsr0h+status,2+status,0+btemp+1+pclath+cstack]
   751                           
   752                           
   753                           ;LCD_batt.c: 46:     value = PORTB & 0xF0;
   754     0EA2  1283               	bcf	3,5	;RP0=0, select bank0
   755     0EA3  1303               	bcf	3,6	;RP1=0, select bank0
   756     0EA4  0806               	movf	6,w	;volatile
   757     0EA5  39F0               	andlw	240
   758     0EA6  1683               	bsf	3,5	;RP0=1, select bank1
   759     0EA7  1303               	bcf	3,6	;RP1=0, select bank1
   760     0EA8  00E6               	movwf	_value^(0+128)
   761                           
   762                           ;LCD_batt.c: 47:     switch (value) {
   763     0EA9  2FE7               	goto	l2245
   764     0EAA                     l2193:
   765                           
   766                           ;LCD_batt.c: 49:             LCD_command(0x80);
   767     0EAA  3080               	movlw	128
   768     0EAB  120A  118A  200D  120A  158A  	fcall	_LCD_command
   769     0EB0                     l2195:
   770                           
   771                           ;LCD_batt.c: 50:             for (unsigned char x = 0; x < 9; x++) {
   772     0EB0  01FD               	clrf	keyscane@x
   773     0EB1                     l2201:
   774                           
   775                           ;LCD_batt.c: 51:                 LCD_data(array[x]);
   776     0EB1  087D               	movf	keyscane@x,w
   777     0EB2  3ED0               	addlw	(low (_array| 0))& (0+255)
   778     0EB3  0084               	movwf	4
   779     0EB4  1383               	bcf	3,7	;select IRP bank1
   780     0EB5  0800               	movf	0,w
   781     0EB6  120A  158A  2199  120A  158A  	fcall	_LCD_data
   782     0EBB                     l2203:
   783                           
   784                           ;LCD_batt.c: 52:             }
   785     0EBB  3001               	movlw	1
   786     0EBC  00FF               	movwf	btemp+1
   787     0EBD  087F               	movf	btemp+1,w
   788     0EBE  07FD               	addwf	keyscane@x,f
   789     0EBF                     l2205:
   790     0EBF  3009               	movlw	9
   791     0EC0  027D               	subwf	keyscane@x,w
   792     0EC1  1C03               	skipc
   793     0EC2  2EC4               	goto	u3241
   794     0EC3  2EC5               	goto	u3240
   795     0EC4                     u3241:
   796     0EC4  2EB1               	goto	l2201
   797     0EC5                     u3240:
   798     0EC5                     l2207:
   799                           
   800                           ;LCD_batt.c: 53:             BATT_VAL = 15.0;
   801     0EC5  3041               	movlw	65
   802     0EC6  1683               	bsf	3,5	;RP0=1, select bank1
   803     0EC7  1303               	bcf	3,6	;RP1=0, select bank1
   804     0EC8  00E3               	movwf	(_BATT_VAL+3)^(0+128)
   805     0EC9  3070               	movlw	112
   806     0ECA  00E2               	movwf	(_BATT_VAL+2)^(0+128)
   807     0ECB  3000               	movlw	0
   808     0ECC  00E1               	movwf	(_BATT_VAL+1)^(0+128)
   809     0ECD  3000               	movlw	0
   810     0ECE  00E0               	movwf	_BATT_VAL^(0+128)
   811     0ECF                     l2209:
   812                           
   813                           ;LCD_batt.c: 54:             LCD_output(BATT_VAL);
   814     0ECF  0863               	movf	(_BATT_VAL+3)^(0+128),w
   815     0ED0  1283               	bcf	3,5	;RP0=0, select bank0
   816     0ED1  1303               	bcf	3,6	;RP1=0, select bank0
   817     0ED2  00EA               	movwf	LCD_output@i+3
   818     0ED3  1683               	bsf	3,5	;RP0=1, select bank1
   819     0ED4  1303               	bcf	3,6	;RP1=0, select bank1
   820     0ED5  0862               	movf	(_BATT_VAL+2)^(0+128),w
   821     0ED6  1283               	bcf	3,5	;RP0=0, select bank0
   822     0ED7  1303               	bcf	3,6	;RP1=0, select bank0
   823     0ED8  00E9               	movwf	LCD_output@i+2
   824     0ED9  1683               	bsf	3,5	;RP0=1, select bank1
   825     0EDA  1303               	bcf	3,6	;RP1=0, select bank1
   826     0EDB  0861               	movf	(_BATT_VAL+1)^(0+128),w
   827     0EDC  1283               	bcf	3,5	;RP0=0, select bank0
   828     0EDD  1303               	bcf	3,6	;RP1=0, select bank0
   829     0EDE  00E8               	movwf	LCD_output@i+1
   830     0EDF  1683               	bsf	3,5	;RP0=1, select bank1
   831     0EE0  1303               	bcf	3,6	;RP1=0, select bank1
   832     0EE1  0860               	movf	_BATT_VAL^(0+128),w
   833     0EE2  1283               	bcf	3,5	;RP0=0, select bank0
   834     0EE3  1303               	bcf	3,6	;RP1=0, select bank0
   835     0EE4  00E7               	movwf	LCD_output@i
   836     0EE5  120A  158A  256A  120A  158A  	fcall	_LCD_output
   837     0EEA                     l2211:
   838                           
   839                           ;LCD_batt.c: 55:             LCD_data(array[13]);
   840     0EEA  1683               	bsf	3,5	;RP0=1, select bank1
   841     0EEB  1303               	bcf	3,6	;RP1=0, select bank1
   842     0EEC  085D               	movf	(_array^(0+128)+13),w
   843     0EED  120A  158A  2199  120A  158A  	fcall	_LCD_data
   844     0EF2                     l2213:
   845                           
   846                           ;LCD_batt.c: 56:             batt_msg();
   847     0EF2  120A  158A  2468  120A  158A  	fcall	_batt_msg
   848                           
   849                           ;LCD_batt.c: 57:             break;
   850     0EF7  2FFF               	goto	l59
   851     0EF8                     l2215:
   852                           
   853                           ;LCD_batt.c: 60:             BATT_VAL += 0.1;
   854     0EF8  303D               	movlw	61
   855     0EF9  00F3               	movwf	___fladd@b+3
   856     0EFA  30CC               	movlw	204
   857     0EFB  00F2               	movwf	___fladd@b+2
   858     0EFC  30CC               	movlw	204
   859     0EFD  00F1               	movwf	___fladd@b+1
   860     0EFE  30CD               	movlw	205
   861     0EFF  00F0               	movwf	___fladd@b
   862     0F00  1683               	bsf	3,5	;RP0=1, select bank1
   863     0F01  1303               	bcf	3,6	;RP1=0, select bank1
   864     0F02  0863               	movf	(_BATT_VAL+3)^(0+128),w
   865     0F03  00F7               	movwf	___fladd@a+3
   866     0F04  0862               	movf	(_BATT_VAL+2)^(0+128),w
   867     0F05  00F6               	movwf	___fladd@a+2
   868     0F06  0861               	movf	(_BATT_VAL+1)^(0+128),w
   869     0F07  00F5               	movwf	___fladd@a+1
   870     0F08  0860               	movf	_BATT_VAL^(0+128),w
   871     0F09  00F4               	movwf	___fladd@a
   872     0F0A  120A  118A  2239  120A  158A  	fcall	___fladd
   873     0F0F  0873               	movf	?___fladd+3,w
   874     0F10  1683               	bsf	3,5	;RP0=1, select bank1
   875     0F11  1303               	bcf	3,6	;RP1=0, select bank1
   876     0F12  00E3               	movwf	(_BATT_VAL+3)^(0+128)
   877     0F13  0872               	movf	?___fladd+2,w
   878     0F14  00E2               	movwf	(_BATT_VAL+2)^(0+128)
   879     0F15  0871               	movf	?___fladd+1,w
   880     0F16  00E1               	movwf	(_BATT_VAL+1)^(0+128)
   881     0F17  0870               	movf	?___fladd,w
   882     0F18  00E0               	movwf	_BATT_VAL^(0+128)
   883     0F19                     l2217:
   884                           
   885                           ;LCD_batt.c: 61:             if (BATT_VAL > 22.5)BATT_VAL = 22.5;
   886     0F19  3041               	movlw	65
   887     0F1A  00F3               	movwf	___flge@ff1+3
   888     0F1B  30B4               	movlw	180
   889     0F1C  00F2               	movwf	___flge@ff1+2
   890     0F1D  3000               	movlw	0
   891     0F1E  00F1               	movwf	___flge@ff1+1
   892     0F1F  3000               	movlw	0
   893     0F20  00F0               	movwf	___flge@ff1
   894     0F21  0863               	movf	(_BATT_VAL+3)^(0+128),w
   895     0F22  00F7               	movwf	___flge@ff2+3
   896     0F23  0862               	movf	(_BATT_VAL+2)^(0+128),w
   897     0F24  00F6               	movwf	___flge@ff2+2
   898     0F25  0861               	movf	(_BATT_VAL+1)^(0+128),w
   899     0F26  00F5               	movwf	___flge@ff2+1
   900     0F27  0860               	movf	_BATT_VAL^(0+128),w
   901     0F28  00F4               	movwf	___flge@ff2
   902     0F29  120A  158A  230C  120A  158A  	fcall	___flge
   903     0F2E  1803               	btfsc	3,0
   904     0F2F  2F31               	goto	u3251
   905     0F30  2F32               	goto	u3250
   906     0F31                     u3251:
   907     0F31  2F3C               	goto	l2221
   908     0F32                     u3250:
   909     0F32                     l2219:
   910     0F32  3041               	movlw	65
   911     0F33  1683               	bsf	3,5	;RP0=1, select bank1
   912     0F34  1303               	bcf	3,6	;RP1=0, select bank1
   913     0F35  00E3               	movwf	(_BATT_VAL+3)^(0+128)
   914     0F36  30B4               	movlw	180
   915     0F37  00E2               	movwf	(_BATT_VAL+2)^(0+128)
   916     0F38  3000               	movlw	0
   917     0F39  00E1               	movwf	(_BATT_VAL+1)^(0+128)
   918     0F3A  3000               	movlw	0
   919     0F3B  00E0               	movwf	_BATT_VAL^(0+128)
   920     0F3C                     l2221:
   921                           
   922                           ;LCD_batt.c: 62:             LCD_output(BATT_VAL);
   923     0F3C  1683               	bsf	3,5	;RP0=1, select bank1
   924     0F3D  1303               	bcf	3,6	;RP1=0, select bank1
   925     0F3E  0863               	movf	(_BATT_VAL+3)^(0+128),w
   926     0F3F  1283               	bcf	3,5	;RP0=0, select bank0
   927     0F40  1303               	bcf	3,6	;RP1=0, select bank0
   928     0F41  00EA               	movwf	LCD_output@i+3
   929     0F42  1683               	bsf	3,5	;RP0=1, select bank1
   930     0F43  1303               	bcf	3,6	;RP1=0, select bank1
   931     0F44  0862               	movf	(_BATT_VAL+2)^(0+128),w
   932     0F45  1283               	bcf	3,5	;RP0=0, select bank0
   933     0F46  1303               	bcf	3,6	;RP1=0, select bank0
   934     0F47  00E9               	movwf	LCD_output@i+2
   935     0F48  1683               	bsf	3,5	;RP0=1, select bank1
   936     0F49  1303               	bcf	3,6	;RP1=0, select bank1
   937     0F4A  0861               	movf	(_BATT_VAL+1)^(0+128),w
   938     0F4B  1283               	bcf	3,5	;RP0=0, select bank0
   939     0F4C  1303               	bcf	3,6	;RP1=0, select bank0
   940     0F4D  00E8               	movwf	LCD_output@i+1
   941     0F4E  1683               	bsf	3,5	;RP0=1, select bank1
   942     0F4F  1303               	bcf	3,6	;RP1=0, select bank1
   943     0F50  0860               	movf	_BATT_VAL^(0+128),w
   944     0F51  1283               	bcf	3,5	;RP0=0, select bank0
   945     0F52  1303               	bcf	3,6	;RP1=0, select bank0
   946     0F53  00E7               	movwf	LCD_output@i
   947     0F54  120A  158A  256A  120A  158A  	fcall	_LCD_output
   948     0F59  2EF2               	goto	l2213
   949     0F5A                     l2225:
   950                           
   951                           ;LCD_batt.c: 67:             BATT_VAL -= 0.1;
   952     0F5A  303D               	movlw	61
   953     0F5B  00C8               	movwf	___flsub@a+3
   954     0F5C  30CC               	movlw	204
   955     0F5D  00C7               	movwf	___flsub@a+2
   956     0F5E  30CC               	movlw	204
   957     0F5F  00C6               	movwf	___flsub@a+1
   958     0F60  30CD               	movlw	205
   959     0F61  00C5               	movwf	___flsub@a
   960     0F62  1683               	bsf	3,5	;RP0=1, select bank1
   961     0F63  1303               	bcf	3,6	;RP1=0, select bank1
   962     0F64  0863               	movf	(_BATT_VAL+3)^(0+128),w
   963     0F65  1283               	bcf	3,5	;RP0=0, select bank0
   964     0F66  1303               	bcf	3,6	;RP1=0, select bank0
   965     0F67  00CC               	movwf	___flsub@b+3
   966     0F68  1683               	bsf	3,5	;RP0=1, select bank1
   967     0F69  1303               	bcf	3,6	;RP1=0, select bank1
   968     0F6A  0862               	movf	(_BATT_VAL+2)^(0+128),w
   969     0F6B  1283               	bcf	3,5	;RP0=0, select bank0
   970     0F6C  1303               	bcf	3,6	;RP1=0, select bank0
   971     0F6D  00CB               	movwf	___flsub@b+2
   972     0F6E  1683               	bsf	3,5	;RP0=1, select bank1
   973     0F6F  1303               	bcf	3,6	;RP1=0, select bank1
   974     0F70  0861               	movf	(_BATT_VAL+1)^(0+128),w
   975     0F71  1283               	bcf	3,5	;RP0=0, select bank0
   976     0F72  1303               	bcf	3,6	;RP1=0, select bank0
   977     0F73  00CA               	movwf	___flsub@b+1
   978     0F74  1683               	bsf	3,5	;RP0=1, select bank1
   979     0F75  1303               	bcf	3,6	;RP1=0, select bank1
   980     0F76  0860               	movf	_BATT_VAL^(0+128),w
   981     0F77  1283               	bcf	3,5	;RP0=0, select bank0
   982     0F78  1303               	bcf	3,6	;RP1=0, select bank0
   983     0F79  00C9               	movwf	___flsub@b
   984     0F7A  120A  158A  21AD  120A  158A  	fcall	___flsub
   985     0F7F  1283               	bcf	3,5	;RP0=0, select bank0
   986     0F80  1303               	bcf	3,6	;RP1=0, select bank0
   987     0F81  0848               	movf	?___flsub+3,w
   988     0F82  1683               	bsf	3,5	;RP0=1, select bank1
   989     0F83  1303               	bcf	3,6	;RP1=0, select bank1
   990     0F84  00E3               	movwf	(_BATT_VAL+3)^(0+128)
   991     0F85  1283               	bcf	3,5	;RP0=0, select bank0
   992     0F86  1303               	bcf	3,6	;RP1=0, select bank0
   993     0F87  0847               	movf	?___flsub+2,w
   994     0F88  1683               	bsf	3,5	;RP0=1, select bank1
   995     0F89  1303               	bcf	3,6	;RP1=0, select bank1
   996     0F8A  00E2               	movwf	(_BATT_VAL+2)^(0+128)
   997     0F8B  1283               	bcf	3,5	;RP0=0, select bank0
   998     0F8C  1303               	bcf	3,6	;RP1=0, select bank0
   999     0F8D  0846               	movf	?___flsub+1,w
  1000     0F8E  1683               	bsf	3,5	;RP0=1, select bank1
  1001     0F8F  1303               	bcf	3,6	;RP1=0, select bank1
  1002     0F90  00E1               	movwf	(_BATT_VAL+1)^(0+128)
  1003     0F91  1283               	bcf	3,5	;RP0=0, select bank0
  1004     0F92  1303               	bcf	3,6	;RP1=0, select bank0
  1005     0F93  0845               	movf	?___flsub,w
  1006     0F94  1683               	bsf	3,5	;RP0=1, select bank1
  1007     0F95  1303               	bcf	3,6	;RP1=0, select bank1
  1008     0F96  00E0               	movwf	_BATT_VAL^(0+128)
  1009     0F97                     l2227:
  1010                           
  1011                           ;LCD_batt.c: 68:             if (BATT_VAL < 15.0)BATT_VAL = 15.0;
  1012     0F97  0863               	movf	(_BATT_VAL+3)^(0+128),w
  1013     0F98  00F3               	movwf	___flge@ff1+3
  1014     0F99  0862               	movf	(_BATT_VAL+2)^(0+128),w
  1015     0F9A  00F2               	movwf	___flge@ff1+2
  1016     0F9B  0861               	movf	(_BATT_VAL+1)^(0+128),w
  1017     0F9C  00F1               	movwf	___flge@ff1+1
  1018     0F9D  0860               	movf	_BATT_VAL^(0+128),w
  1019     0F9E  00F0               	movwf	___flge@ff1
  1020     0F9F  3041               	movlw	65
  1021     0FA0  00F7               	movwf	___flge@ff2+3
  1022     0FA1  3070               	movlw	112
  1023     0FA2  00F6               	movwf	___flge@ff2+2
  1024     0FA3  3000               	movlw	0
  1025     0FA4  00F5               	movwf	___flge@ff2+1
  1026     0FA5  3000               	movlw	0
  1027     0FA6  00F4               	movwf	___flge@ff2
  1028     0FA7  120A  158A  230C  120A  158A  	fcall	___flge
  1029     0FAC  1803               	btfsc	3,0
  1030     0FAD  2FAF               	goto	u3261
  1031     0FAE  2FB0               	goto	u3260
  1032     0FAF                     u3261:
  1033     0FAF  2F3C               	goto	l2221
  1034     0FB0                     u3260:
  1035     0FB0                     l2229:
  1036     0FB0  3041               	movlw	65
  1037     0FB1  1683               	bsf	3,5	;RP0=1, select bank1
  1038     0FB2  1303               	bcf	3,6	;RP1=0, select bank1
  1039     0FB3  00E3               	movwf	(_BATT_VAL+3)^(0+128)
  1040     0FB4  3070               	movlw	112
  1041     0FB5  00E2               	movwf	(_BATT_VAL+2)^(0+128)
  1042     0FB6  3000               	movlw	0
  1043     0FB7  00E1               	movwf	(_BATT_VAL+1)^(0+128)
  1044     0FB8  3000               	movlw	0
  1045     0FB9  00E0               	movwf	_BATT_VAL^(0+128)
  1046     0FBA  2F3C               	goto	l2221
  1047     0FBB                     l2235:
  1048                           
  1049                           ;LCD_batt.c: 74:             BATT_VAL = 17.7;
  1050     0FBB  3041               	movlw	65
  1051     0FBC  1683               	bsf	3,5	;RP0=1, select bank1
  1052     0FBD  1303               	bcf	3,6	;RP1=0, select bank1
  1053     0FBE  00E3               	movwf	(_BATT_VAL+3)^(0+128)
  1054     0FBF  308D               	movlw	141
  1055     0FC0  00E2               	movwf	(_BATT_VAL+2)^(0+128)
  1056     0FC1  3099               	movlw	153
  1057     0FC2  00E1               	movwf	(_BATT_VAL+1)^(0+128)
  1058     0FC3  309A               	movlw	154
  1059     0FC4  00E0               	movwf	_BATT_VAL^(0+128)
  1060     0FC5                     l2237:
  1061                           
  1062                           ;LCD_batt.c: 75:             LCD_output(BATT_VAL);
  1063     0FC5  0863               	movf	(_BATT_VAL+3)^(0+128),w
  1064     0FC6  1283               	bcf	3,5	;RP0=0, select bank0
  1065     0FC7  1303               	bcf	3,6	;RP1=0, select bank0
  1066     0FC8  00EA               	movwf	LCD_output@i+3
  1067     0FC9  1683               	bsf	3,5	;RP0=1, select bank1
  1068     0FCA  1303               	bcf	3,6	;RP1=0, select bank1
  1069     0FCB  0862               	movf	(_BATT_VAL+2)^(0+128),w
  1070     0FCC  1283               	bcf	3,5	;RP0=0, select bank0
  1071     0FCD  1303               	bcf	3,6	;RP1=0, select bank0
  1072     0FCE  00E9               	movwf	LCD_output@i+2
  1073     0FCF  1683               	bsf	3,5	;RP0=1, select bank1
  1074     0FD0  1303               	bcf	3,6	;RP1=0, select bank1
  1075     0FD1  0861               	movf	(_BATT_VAL+1)^(0+128),w
  1076     0FD2  1283               	bcf	3,5	;RP0=0, select bank0
  1077     0FD3  1303               	bcf	3,6	;RP1=0, select bank0
  1078     0FD4  00E8               	movwf	LCD_output@i+1
  1079     0FD5  1683               	bsf	3,5	;RP0=1, select bank1
  1080     0FD6  1303               	bcf	3,6	;RP1=0, select bank1
  1081     0FD7  0860               	movf	_BATT_VAL^(0+128),w
  1082     0FD8  1283               	bcf	3,5	;RP0=0, select bank0
  1083     0FD9  1303               	bcf	3,6	;RP1=0, select bank0
  1084     0FDA  00E7               	movwf	LCD_output@i
  1085     0FDB  120A  158A  256A  120A  158A  	fcall	_LCD_output
  1086     0FE0                     l2239:
  1087                           
  1088                           ;LCD_batt.c: 76:             LCD_command(0xC0);
  1089     0FE0  30C0               	movlw	192
  1090     0FE1  120A  118A  200D  120A  158A  	fcall	_LCD_command
  1091     0FE6  2EF2               	goto	l2213
  1092     0FE7                     l2245:
  1093     0FE7  0866               	movf	_value^(0+128),w
  1094     0FE8  1283               	bcf	3,5	;RP0=0, select bank0
  1095     0FE9  1303               	bcf	3,6	;RP1=0, select bank0
  1096     0FEA  00ED               	movwf	??_keyscane
  1097     0FEB  01EE               	clrf	??_keyscane+1
  1098                           
  1099                           ; Switch on 2 bytes has been partitioned into a top level switch of size 1, and 1 sub-sw
      +                          itches
  1100                           ; Switch size 1, requested type "simple"
  1101                           ; Number of cases is 1, Range of values is 0 to 0
  1102                           ; switch strategies available:
  1103                           ; Name         Instructions Cycles
  1104                           ; simple_byte            4     3 (average)
  1105                           ; direct_byte           11     8 (fixed)
  1106                           ; jumptable            260     6 (fixed)
  1107                           ;	Chosen strategy is simple_byte
  1108     0FEC  086E               	movf	??_keyscane+1,w
  1109     0FED  3A00               	xorlw	0	; case 0
  1110     0FEE  1903               	skipnz
  1111     0FEF  2FF1               	goto	l2275
  1112     0FF0  2FFF               	goto	l59
  1113     0FF1                     l2275:
  1114                           
  1115                           ; Switch size 1, requested type "simple"
  1116                           ; Number of cases is 4, Range of values is 112 to 224
  1117                           ; switch strategies available:
  1118                           ; Name         Instructions Cycles
  1119                           ; simple_byte           13     7 (average)
  1120                           ; jumptable            263     9 (fixed)
  1121                           ;	Chosen strategy is simple_byte
  1122     0FF1  086D               	movf	??_keyscane,w
  1123     0FF2  3A70               	xorlw	112	; case 112
  1124     0FF3  1903               	skipnz
  1125     0FF4  2FBB               	goto	l2235
  1126     0FF5  3AC0               	xorlw	192	; case 176
  1127     0FF6  1903               	skipnz
  1128     0FF7  2F5A               	goto	l2225
  1129     0FF8  3A60               	xorlw	96	; case 208
  1130     0FF9  1903               	skipnz
  1131     0FFA  2EF8               	goto	l2215
  1132     0FFB  3A30               	xorlw	48	; case 224
  1133     0FFC  1903               	skipnz
  1134     0FFD  2EAA               	goto	l2193
  1135     0FFE  2FFF               	goto	l59
  1136     0FFF                     l59:
  1137     0FFF  0008               	return
  1138     1000                     __end_of_keyscane:
  1139                           
  1140                           	psect	text2
  1141     0C68                     __ptext2:	
  1142 ;; *************** function _batt_msg *****************
  1143 ;; Defined at:
  1144 ;;		line 82 in file "LCD_batt.c"
  1145 ;; Parameters:    Size  Location     Type
  1146 ;;		None
  1147 ;; Auto vars:     Size  Location     Type
  1148 ;;  x               1    2[BANK0 ] unsigned char 
  1149 ;;  x               1    1[BANK0 ] unsigned char 
  1150 ;;  x               1    0[BANK0 ] unsigned char 
  1151 ;; Return value:  Size  Location     Type
  1152 ;;                  1    wreg      void 
  1153 ;; Registers used:
  1154 ;;		wreg, fsr0l, fsr0h, status,2, status,0, btemp+1, pclath, cstack
  1155 ;; Tracked objects:
  1156 ;;		On entry : 0/0
  1157 ;;		On exit  : 0/0
  1158 ;;		Unchanged: 0/0
  1159 ;; Data sizes:     COMMON   BANK0   BANK1   BANK3   BANK2
  1160 ;;      Params:         0       0       0       0       0
  1161 ;;      Locals:         0       3       0       0       0
  1162 ;;      Temps:          0       0       0       0       0
  1163 ;;      Totals:         0       3       0       0       0
  1164 ;;Total ram usage:        3 bytes
  1165 ;; Hardware stack levels used: 1
  1166 ;; Hardware stack levels required when called: 1
  1167 ;; This function calls:
  1168 ;;		_LCD_command
  1169 ;;		_LCD_data
  1170 ;;		___flge
  1171 ;; This function is called by:
  1172 ;;		_keyscane
  1173 ;; This function uses a non-reentrant model
  1174 ;;
  1175                           
  1176     0C68                     _batt_msg:	
  1177                           ;psect for function _batt_msg
  1178                           
  1179     0C68                     l2109:	
  1180                           ;incstack = 0
  1181                           ; Regs used in _batt_msg: [wreg-fsr0h+status,2+status,0+btemp+1+pclath+cstack]
  1182                           
  1183                           
  1184                           ;LCD_batt.c: 83:     if (BATT_VAL >= 15.0 && BATT_VAL < 17.5) {
  1185     0C68  1683               	bsf	3,5	;RP0=1, select bank1
  1186     0C69  1303               	bcf	3,6	;RP1=0, select bank1
  1187     0C6A  0863               	movf	(_BATT_VAL+3)^(0+128),w
  1188     0C6B  00F3               	movwf	___flge@ff1+3
  1189     0C6C  0862               	movf	(_BATT_VAL+2)^(0+128),w
  1190     0C6D  00F2               	movwf	___flge@ff1+2
  1191     0C6E  0861               	movf	(_BATT_VAL+1)^(0+128),w
  1192     0C6F  00F1               	movwf	___flge@ff1+1
  1193     0C70  0860               	movf	_BATT_VAL^(0+128),w
  1194     0C71  00F0               	movwf	___flge@ff1
  1195     0C72  3041               	movlw	65
  1196     0C73  00F7               	movwf	___flge@ff2+3
  1197     0C74  3070               	movlw	112
  1198     0C75  00F6               	movwf	___flge@ff2+2
  1199     0C76  3000               	movlw	0
  1200     0C77  00F5               	movwf	___flge@ff2+1
  1201     0C78  3000               	movlw	0
  1202     0C79  00F4               	movwf	___flge@ff2
  1203     0C7A  120A  158A  230C  120A  158A  	fcall	___flge
  1204     0C7F  1C03               	btfss	3,0
  1205     0C80  2C82               	goto	u3151
  1206     0C81  2C83               	goto	u3150
  1207     0C82                     u3151:
  1208     0C82  2CBE               	goto	l2127
  1209     0C83                     u3150:
  1210     0C83                     l2111:
  1211     0C83  1683               	bsf	3,5	;RP0=1, select bank1
  1212     0C84  1303               	bcf	3,6	;RP1=0, select bank1
  1213     0C85  0863               	movf	(_BATT_VAL+3)^(0+128),w
  1214     0C86  00F3               	movwf	___flge@ff1+3
  1215     0C87  0862               	movf	(_BATT_VAL+2)^(0+128),w
  1216     0C88  00F2               	movwf	___flge@ff1+2
  1217     0C89  0861               	movf	(_BATT_VAL+1)^(0+128),w
  1218     0C8A  00F1               	movwf	___flge@ff1+1
  1219     0C8B  0860               	movf	_BATT_VAL^(0+128),w
  1220     0C8C  00F0               	movwf	___flge@ff1
  1221     0C8D  3041               	movlw	65
  1222     0C8E  00F7               	movwf	___flge@ff2+3
  1223     0C8F  308C               	movlw	140
  1224     0C90  00F6               	movwf	___flge@ff2+2
  1225     0C91  3000               	movlw	0
  1226     0C92  00F5               	movwf	___flge@ff2+1
  1227     0C93  3000               	movlw	0
  1228     0C94  00F4               	movwf	___flge@ff2
  1229     0C95  120A  158A  230C  120A  158A  	fcall	___flge
  1230     0C9A  1803               	btfsc	3,0
  1231     0C9B  2C9D               	goto	u3161
  1232     0C9C  2C9E               	goto	u3160
  1233     0C9D                     u3161:
  1234     0C9D  2CBE               	goto	l2127
  1235     0C9E                     u3160:
  1236     0C9E                     l2113:
  1237                           
  1238                           ;LCD_batt.c: 84:         LCD_command(0xC0);
  1239     0C9E  30C0               	movlw	192
  1240     0C9F  120A  118A  200D  120A  158A  	fcall	_LCD_command
  1241     0CA4                     l2115:
  1242                           
  1243                           ;LCD_batt.c: 85:         for (unsigned char x = 0; x < 15; x++) {
  1244     0CA4  1283               	bcf	3,5	;RP0=0, select bank0
  1245     0CA5  1303               	bcf	3,6	;RP1=0, select bank0
  1246     0CA6  01A0               	clrf	batt_msg@x
  1247     0CA7                     l2121:
  1248                           
  1249                           ;LCD_batt.c: 86:             LCD_data(BATT_MSG1[x]);
  1250     0CA7  0820               	movf	batt_msg@x,w
  1251     0CA8  3EC0               	addlw	(low (_BATT_MSG1| 0))& (0+255)
  1252     0CA9  0084               	movwf	4
  1253     0CAA  1383               	bcf	3,7	;select IRP bank1
  1254     0CAB  0800               	movf	0,w
  1255     0CAC  120A  158A  2199  120A  158A  	fcall	_LCD_data
  1256     0CB1                     l2123:
  1257                           
  1258                           ;LCD_batt.c: 87:         }
  1259     0CB1  3001               	movlw	1
  1260     0CB2  00FF               	movwf	btemp+1
  1261     0CB3  087F               	movf	btemp+1,w
  1262     0CB4  1283               	bcf	3,5	;RP0=0, select bank0
  1263     0CB5  1303               	bcf	3,6	;RP1=0, select bank0
  1264     0CB6  07A0               	addwf	batt_msg@x,f
  1265     0CB7                     l2125:
  1266     0CB7  300F               	movlw	15
  1267     0CB8  0220               	subwf	batt_msg@x,w
  1268     0CB9  1C03               	skipc
  1269     0CBA  2CBC               	goto	u3171
  1270     0CBB  2CBD               	goto	u3170
  1271     0CBC                     u3171:
  1272     0CBC  2CA7               	goto	l2121
  1273     0CBD                     u3170:
  1274     0CBD  2D69               	goto	l73
  1275     0CBE                     l2127:
  1276     0CBE  3041               	movlw	65
  1277     0CBF  00F3               	movwf	___flge@ff1+3
  1278     0CC0  308C               	movlw	140
  1279     0CC1  00F2               	movwf	___flge@ff1+2
  1280     0CC2  30CC               	movlw	204
  1281     0CC3  00F1               	movwf	___flge@ff1+1
  1282     0CC4  30CD               	movlw	205
  1283     0CC5  00F0               	movwf	___flge@ff1
  1284     0CC6  1683               	bsf	3,5	;RP0=1, select bank1
  1285     0CC7  1303               	bcf	3,6	;RP1=0, select bank1
  1286     0CC8  0863               	movf	(_BATT_VAL+3)^(0+128),w
  1287     0CC9  00F7               	movwf	___flge@ff2+3
  1288     0CCA  0862               	movf	(_BATT_VAL+2)^(0+128),w
  1289     0CCB  00F6               	movwf	___flge@ff2+2
  1290     0CCC  0861               	movf	(_BATT_VAL+1)^(0+128),w
  1291     0CCD  00F5               	movwf	___flge@ff2+1
  1292     0CCE  0860               	movf	_BATT_VAL^(0+128),w
  1293     0CCF  00F4               	movwf	___flge@ff2
  1294     0CD0  120A  158A  230C  120A  158A  	fcall	___flge
  1295     0CD5  1803               	btfsc	3,0
  1296     0CD6  2CD8               	goto	u3181
  1297     0CD7  2CD9               	goto	u3180
  1298     0CD8                     u3181:
  1299     0CD8  2D14               	goto	l2145
  1300     0CD9                     u3180:
  1301     0CD9                     l2129:
  1302     0CD9  1683               	bsf	3,5	;RP0=1, select bank1
  1303     0CDA  1303               	bcf	3,6	;RP1=0, select bank1
  1304     0CDB  0863               	movf	(_BATT_VAL+3)^(0+128),w
  1305     0CDC  00F3               	movwf	___flge@ff1+3
  1306     0CDD  0862               	movf	(_BATT_VAL+2)^(0+128),w
  1307     0CDE  00F2               	movwf	___flge@ff1+2
  1308     0CDF  0861               	movf	(_BATT_VAL+1)^(0+128),w
  1309     0CE0  00F1               	movwf	___flge@ff1+1
  1310     0CE1  0860               	movf	_BATT_VAL^(0+128),w
  1311     0CE2  00F0               	movwf	___flge@ff1
  1312     0CE3  3041               	movlw	65
  1313     0CE4  00F7               	movwf	___flge@ff2+3
  1314     0CE5  30A4               	movlw	164
  1315     0CE6  00F6               	movwf	___flge@ff2+2
  1316     0CE7  3000               	movlw	0
  1317     0CE8  00F5               	movwf	___flge@ff2+1
  1318     0CE9  3000               	movlw	0
  1319     0CEA  00F4               	movwf	___flge@ff2
  1320     0CEB  120A  158A  230C  120A  158A  	fcall	___flge
  1321     0CF0  1803               	btfsc	3,0
  1322     0CF1  2CF3               	goto	u3191
  1323     0CF2  2CF4               	goto	u3190
  1324     0CF3                     u3191:
  1325     0CF3  2D14               	goto	l2145
  1326     0CF4                     u3190:
  1327     0CF4                     l2131:
  1328                           
  1329                           ;LCD_batt.c: 89:         LCD_command(0xC0);
  1330     0CF4  30C0               	movlw	192
  1331     0CF5  120A  118A  200D  120A  158A  	fcall	_LCD_command
  1332     0CFA                     l2133:
  1333                           
  1334                           ;LCD_batt.c: 90:         for (unsigned char x = 0; x < 15; x++) {
  1335     0CFA  1283               	bcf	3,5	;RP0=0, select bank0
  1336     0CFB  1303               	bcf	3,6	;RP1=0, select bank0
  1337     0CFC  01A1               	clrf	batt_msg@x_76
  1338     0CFD                     l2139:
  1339                           
  1340                           ;LCD_batt.c: 91:             LCD_data(BATT_MSG2[x]);
  1341     0CFD  0821               	movf	batt_msg@x_76,w
  1342     0CFE  3EB0               	addlw	(low (_BATT_MSG2| 0))& (0+255)
  1343     0CFF  0084               	movwf	4
  1344     0D00  1383               	bcf	3,7	;select IRP bank1
  1345     0D01  0800               	movf	0,w
  1346     0D02  120A  158A  2199  120A  158A  	fcall	_LCD_data
  1347     0D07                     l2141:
  1348                           
  1349                           ;LCD_batt.c: 92:         }
  1350     0D07  3001               	movlw	1
  1351     0D08  00FF               	movwf	btemp+1
  1352     0D09  087F               	movf	btemp+1,w
  1353     0D0A  1283               	bcf	3,5	;RP0=0, select bank0
  1354     0D0B  1303               	bcf	3,6	;RP1=0, select bank0
  1355     0D0C  07A1               	addwf	batt_msg@x_76,f
  1356     0D0D                     l2143:
  1357     0D0D  300F               	movlw	15
  1358     0D0E  0221               	subwf	batt_msg@x_76,w
  1359     0D0F  1C03               	skipc
  1360     0D10  2D12               	goto	u3201
  1361     0D11  2D13               	goto	u3200
  1362     0D12                     u3201:
  1363     0D12  2CFD               	goto	l2139
  1364     0D13                     u3200:
  1365     0D13  2D69               	goto	l73
  1366     0D14                     l2145:
  1367     0D14  3041               	movlw	65
  1368     0D15  00F3               	movwf	___flge@ff1+3
  1369     0D16  30A4               	movlw	164
  1370     0D17  00F2               	movwf	___flge@ff1+2
  1371     0D18  30CC               	movlw	204
  1372     0D19  00F1               	movwf	___flge@ff1+1
  1373     0D1A  30CD               	movlw	205
  1374     0D1B  00F0               	movwf	___flge@ff1
  1375     0D1C  1683               	bsf	3,5	;RP0=1, select bank1
  1376     0D1D  1303               	bcf	3,6	;RP1=0, select bank1
  1377     0D1E  0863               	movf	(_BATT_VAL+3)^(0+128),w
  1378     0D1F  00F7               	movwf	___flge@ff2+3
  1379     0D20  0862               	movf	(_BATT_VAL+2)^(0+128),w
  1380     0D21  00F6               	movwf	___flge@ff2+2
  1381     0D22  0861               	movf	(_BATT_VAL+1)^(0+128),w
  1382     0D23  00F5               	movwf	___flge@ff2+1
  1383     0D24  0860               	movf	_BATT_VAL^(0+128),w
  1384     0D25  00F4               	movwf	___flge@ff2
  1385     0D26  120A  158A  230C  120A  158A  	fcall	___flge
  1386     0D2B  1803               	btfsc	3,0
  1387     0D2C  2D2E               	goto	u3211
  1388     0D2D  2D2F               	goto	u3210
  1389     0D2E                     u3211:
  1390     0D2E  2D69               	goto	l73
  1391     0D2F                     u3210:
  1392     0D2F                     l2147:
  1393     0D2F  3041               	movlw	65
  1394     0D30  00F3               	movwf	___flge@ff1+3
  1395     0D31  30B4               	movlw	180
  1396     0D32  00F2               	movwf	___flge@ff1+2
  1397     0D33  3000               	movlw	0
  1398     0D34  00F1               	movwf	___flge@ff1+1
  1399     0D35  3000               	movlw	0
  1400     0D36  00F0               	movwf	___flge@ff1
  1401     0D37  1683               	bsf	3,5	;RP0=1, select bank1
  1402     0D38  1303               	bcf	3,6	;RP1=0, select bank1
  1403     0D39  0863               	movf	(_BATT_VAL+3)^(0+128),w
  1404     0D3A  00F7               	movwf	___flge@ff2+3
  1405     0D3B  0862               	movf	(_BATT_VAL+2)^(0+128),w
  1406     0D3C  00F6               	movwf	___flge@ff2+2
  1407     0D3D  0861               	movf	(_BATT_VAL+1)^(0+128),w
  1408     0D3E  00F5               	movwf	___flge@ff2+1
  1409     0D3F  0860               	movf	_BATT_VAL^(0+128),w
  1410     0D40  00F4               	movwf	___flge@ff2
  1411     0D41  120A  158A  230C  120A  158A  	fcall	___flge
  1412     0D46  1C03               	btfss	3,0
  1413     0D47  2D49               	goto	u3221
  1414     0D48  2D4A               	goto	u3220
  1415     0D49                     u3221:
  1416     0D49  2D69               	goto	l73
  1417     0D4A                     u3220:
  1418     0D4A                     l2149:
  1419                           
  1420                           ;LCD_batt.c: 94:         LCD_command(0xC0);
  1421     0D4A  30C0               	movlw	192
  1422     0D4B  120A  118A  200D  120A  158A  	fcall	_LCD_command
  1423     0D50                     l2151:
  1424                           
  1425                           ;LCD_batt.c: 95:         for (unsigned char x = 0; x < 15; x++) {
  1426     0D50  1283               	bcf	3,5	;RP0=0, select bank0
  1427     0D51  1303               	bcf	3,6	;RP1=0, select bank0
  1428     0D52  01A2               	clrf	batt_msg@x_77
  1429     0D53                     l2157:
  1430                           
  1431                           ;LCD_batt.c: 96:             LCD_data(BATT_MSG3[x]);
  1432     0D53  0822               	movf	batt_msg@x_77,w
  1433     0D54  3EA0               	addlw	(low (_BATT_MSG3| 0))& (0+255)
  1434     0D55  0084               	movwf	4
  1435     0D56  1383               	bcf	3,7	;select IRP bank1
  1436     0D57  0800               	movf	0,w
  1437     0D58  120A  158A  2199  120A  158A  	fcall	_LCD_data
  1438     0D5D                     l2159:
  1439                           
  1440                           ;LCD_batt.c: 97:         }
  1441     0D5D  3001               	movlw	1
  1442     0D5E  00FF               	movwf	btemp+1
  1443     0D5F  087F               	movf	btemp+1,w
  1444     0D60  1283               	bcf	3,5	;RP0=0, select bank0
  1445     0D61  1303               	bcf	3,6	;RP1=0, select bank0
  1446     0D62  07A2               	addwf	batt_msg@x_77,f
  1447     0D63                     l2161:
  1448     0D63  300F               	movlw	15
  1449     0D64  0222               	subwf	batt_msg@x_77,w
  1450     0D65  1C03               	skipc
  1451     0D66  2D68               	goto	u3231
  1452     0D67  2D69               	goto	u3230
  1453     0D68                     u3231:
  1454     0D68  2D53               	goto	l2157
  1455     0D69                     u3230:
  1456     0D69                     l73:
  1457     0D69  0008               	return
  1458     0D6A                     __end_of_batt_msg:
  1459                           
  1460                           	psect	text3
  1461     0B0C                     __ptext3:	
  1462 ;; *************** function ___flge *****************
  1463 ;; Defined at:
  1464 ;;		line 4 in file "C:\Program Files\Microchip\xc8\v2.45\pic\sources\c99\common\flge.c"
  1465 ;; Parameters:    Size  Location     Type
  1466 ;;  ff1             4    0[COMMON] void 
  1467 ;;  ff2             4    4[COMMON] void 
  1468 ;; Auto vars:     Size  Location     Type
  1469 ;;		None
  1470 ;; Return value:  Size  Location     Type
  1471 ;;		None               void
  1472 ;; Registers used:
  1473 ;;		wreg, status,2, status,0
  1474 ;; Tracked objects:
  1475 ;;		On entry : 0/0
  1476 ;;		On exit  : 0/0
  1477 ;;		Unchanged: 0/0
  1478 ;; Data sizes:     COMMON   BANK0   BANK1   BANK3   BANK2
  1479 ;;      Params:         8       0       0       0       0
  1480 ;;      Locals:         0       0       0       0       0
  1481 ;;      Temps:          4       0       0       0       0
  1482 ;;      Totals:        12       0       0       0       0
  1483 ;;Total ram usage:       12 bytes
  1484 ;; Hardware stack levels used: 1
  1485 ;; This function calls:
  1486 ;;		Nothing
  1487 ;; This function is called by:
  1488 ;;		_keyscane
  1489 ;;		_batt_msg
  1490 ;; This function uses a non-reentrant model
  1491 ;;
  1492                           
  1493     0B0C                     ___flge:	
  1494                           ;psect for function ___flge
  1495                           
  1496     0B0C                     l1707:	
  1497                           ;incstack = 0
  1498                           ; Regs used in ___flge: [wreg+status,2+status,0]
  1499                           
  1500     0B0C  3000               	movlw	0
  1501     0B0D  0570               	andwf	___flge@ff1,w
  1502     0B0E  00F8               	movwf	??___flge
  1503     0B0F  3000               	movlw	0
  1504     0B10  0571               	andwf	___flge@ff1+1,w
  1505     0B11  00F9               	movwf	??___flge+1
  1506     0B12  3080               	movlw	128
  1507     0B13  0572               	andwf	___flge@ff1+2,w
  1508     0B14  00FA               	movwf	??___flge+2
  1509     0B15  307F               	movlw	127
  1510     0B16  0573               	andwf	___flge@ff1+3,w
  1511     0B17  00FB               	movwf	??___flge+3
  1512     0B18  087B               	movf	??___flge+3,w
  1513     0B19  047A               	iorwf	??___flge+2,w
  1514     0B1A  0479               	iorwf	??___flge+1,w
  1515     0B1B  0478               	iorwf	??___flge,w
  1516     0B1C  1D03               	skipz
  1517     0B1D  2B1F               	goto	u2171
  1518     0B1E  2B20               	goto	u2170
  1519     0B1F                     u2171:
  1520     0B1F  2B28               	goto	l355
  1521     0B20                     u2170:
  1522     0B20                     l1709:
  1523     0B20  3000               	movlw	0
  1524     0B21  00F3               	movwf	___flge@ff1+3
  1525     0B22  3000               	movlw	0
  1526     0B23  00F2               	movwf	___flge@ff1+2
  1527     0B24  3000               	movlw	0
  1528     0B25  00F1               	movwf	___flge@ff1+1
  1529     0B26  3000               	movlw	0
  1530     0B27  00F0               	movwf	___flge@ff1
  1531     0B28                     l355:
  1532     0B28  3000               	movlw	0
  1533     0B29  0574               	andwf	___flge@ff2,w
  1534     0B2A  00F8               	movwf	??___flge
  1535     0B2B  3000               	movlw	0
  1536     0B2C  0575               	andwf	___flge@ff2+1,w
  1537     0B2D  00F9               	movwf	??___flge+1
  1538     0B2E  3080               	movlw	128
  1539     0B2F  0576               	andwf	___flge@ff2+2,w
  1540     0B30  00FA               	movwf	??___flge+2
  1541     0B31  307F               	movlw	127
  1542     0B32  0577               	andwf	___flge@ff2+3,w
  1543     0B33  00FB               	movwf	??___flge+3
  1544     0B34  087B               	movf	??___flge+3,w
  1545     0B35  047A               	iorwf	??___flge+2,w
  1546     0B36  0479               	iorwf	??___flge+1,w
  1547     0B37  0478               	iorwf	??___flge,w
  1548     0B38  1D03               	skipz
  1549     0B39  2B3B               	goto	u2181
  1550     0B3A  2B3C               	goto	u2180
  1551     0B3B                     u2181:
  1552     0B3B  2B44               	goto	l1713
  1553     0B3C                     u2180:
  1554     0B3C                     l1711:
  1555     0B3C  3000               	movlw	0
  1556     0B3D  00F7               	movwf	___flge@ff2+3
  1557     0B3E  3000               	movlw	0
  1558     0B3F  00F6               	movwf	___flge@ff2+2
  1559     0B40  3000               	movlw	0
  1560     0B41  00F5               	movwf	___flge@ff2+1
  1561     0B42  3000               	movlw	0
  1562     0B43  00F4               	movwf	___flge@ff2
  1563     0B44                     l1713:
  1564     0B44  1FF3               	btfss	___flge@ff1+3,7
  1565     0B45  2B47               	goto	u2191
  1566     0B46  2B48               	goto	u2190
  1567     0B47                     u2191:
  1568     0B47  2B6C               	goto	l1717
  1569     0B48                     u2190:
  1570     0B48                     l1715:
  1571     0B48  3000               	movlw	0
  1572     0B49  00F8               	movwf	??___flge
  1573     0B4A  3000               	movlw	0
  1574     0B4B  00F9               	movwf	??___flge+1
  1575     0B4C  3000               	movlw	0
  1576     0B4D  00FA               	movwf	??___flge+2
  1577     0B4E  3080               	movlw	128
  1578     0B4F  00FB               	movwf	??___flge+3
  1579     0B50  0870               	movf	___flge@ff1,w
  1580     0B51  02F8               	subwf	??___flge,f
  1581     0B52  0871               	movf	___flge@ff1+1,w
  1582     0B53  1C03               	skipc
  1583     0B54  0F71               	incfsz	___flge@ff1+1,w
  1584     0B55  2B57               	goto	u2201
  1585     0B56  2B58               	goto	u2202
  1586     0B57                     u2201:
  1587     0B57  02F9               	subwf	??___flge+1,f
  1588     0B58                     u2202:
  1589     0B58  0872               	movf	___flge@ff1+2,w
  1590     0B59  1C03               	skipc
  1591     0B5A  0F72               	incfsz	___flge@ff1+2,w
  1592     0B5B  2B5D               	goto	u2203
  1593     0B5C  2B5E               	goto	u2204
  1594     0B5D                     u2203:
  1595     0B5D  02FA               	subwf	??___flge+2,f
  1596     0B5E                     u2204:
  1597     0B5E  0873               	movf	___flge@ff1+3,w
  1598     0B5F  1C03               	skipc
  1599     0B60  0F73               	incfsz	___flge@ff1+3,w
  1600     0B61  2B63               	goto	u2205
  1601     0B62  2B64               	goto	u2206
  1602     0B63                     u2205:
  1603     0B63  02FB               	subwf	??___flge+3,f
  1604     0B64                     u2206:
  1605     0B64  087B               	movf	??___flge+3,w
  1606     0B65  00F3               	movwf	___flge@ff1+3
  1607     0B66  087A               	movf	??___flge+2,w
  1608     0B67  00F2               	movwf	___flge@ff1+2
  1609     0B68  0879               	movf	??___flge+1,w
  1610     0B69  00F1               	movwf	___flge@ff1+1
  1611     0B6A  0878               	movf	??___flge,w
  1612     0B6B  00F0               	movwf	___flge@ff1
  1613     0B6C                     l1717:
  1614     0B6C  1FF7               	btfss	___flge@ff2+3,7
  1615     0B6D  2B6F               	goto	u2211
  1616     0B6E  2B70               	goto	u2210
  1617     0B6F                     u2211:
  1618     0B6F  2B94               	goto	l358
  1619     0B70                     u2210:
  1620     0B70                     l1719:
  1621     0B70  3000               	movlw	0
  1622     0B71  00F8               	movwf	??___flge
  1623     0B72  3000               	movlw	0
  1624     0B73  00F9               	movwf	??___flge+1
  1625     0B74  3000               	movlw	0
  1626     0B75  00FA               	movwf	??___flge+2
  1627     0B76  3080               	movlw	128
  1628     0B77  00FB               	movwf	??___flge+3
  1629     0B78  0874               	movf	___flge@ff2,w
  1630     0B79  02F8               	subwf	??___flge,f
  1631     0B7A  0875               	movf	___flge@ff2+1,w
  1632     0B7B  1C03               	skipc
  1633     0B7C  0F75               	incfsz	___flge@ff2+1,w
  1634     0B7D  2B7F               	goto	u2221
  1635     0B7E  2B80               	goto	u2222
  1636     0B7F                     u2221:
  1637     0B7F  02F9               	subwf	??___flge+1,f
  1638     0B80                     u2222:
  1639     0B80  0876               	movf	___flge@ff2+2,w
  1640     0B81  1C03               	skipc
  1641     0B82  0F76               	incfsz	___flge@ff2+2,w
  1642     0B83  2B85               	goto	u2223
  1643     0B84  2B86               	goto	u2224
  1644     0B85                     u2223:
  1645     0B85  02FA               	subwf	??___flge+2,f
  1646     0B86                     u2224:
  1647     0B86  0877               	movf	___flge@ff2+3,w
  1648     0B87  1C03               	skipc
  1649     0B88  0F77               	incfsz	___flge@ff2+3,w
  1650     0B89  2B8B               	goto	u2225
  1651     0B8A  2B8C               	goto	u2226
  1652     0B8B                     u2225:
  1653     0B8B  02FB               	subwf	??___flge+3,f
  1654     0B8C                     u2226:
  1655     0B8C  087B               	movf	??___flge+3,w
  1656     0B8D  00F7               	movwf	___flge@ff2+3
  1657     0B8E  087A               	movf	??___flge+2,w
  1658     0B8F  00F6               	movwf	___flge@ff2+2
  1659     0B90  0879               	movf	??___flge+1,w
  1660     0B91  00F5               	movwf	___flge@ff2+1
  1661     0B92  0878               	movf	??___flge,w
  1662     0B93  00F4               	movwf	___flge@ff2
  1663     0B94                     l358:
  1664     0B94  3080               	movlw	128
  1665     0B95  06F3               	xorwf	___flge@ff1+3,f
  1666     0B96  3080               	movlw	128
  1667     0B97  06F7               	xorwf	___flge@ff2+3,f
  1668     0B98  0877               	movf	___flge@ff2+3,w
  1669     0B99  0273               	subwf	___flge@ff1+3,w
  1670     0B9A  1D03               	skipz
  1671     0B9B  2BA6               	goto	u2235
  1672     0B9C  0876               	movf	___flge@ff2+2,w
  1673     0B9D  0272               	subwf	___flge@ff1+2,w
  1674     0B9E  1D03               	skipz
  1675     0B9F  2BA6               	goto	u2235
  1676     0BA0  0875               	movf	___flge@ff2+1,w
  1677     0BA1  0271               	subwf	___flge@ff1+1,w
  1678     0BA2  1D03               	skipz
  1679     0BA3  2BA6               	goto	u2235
  1680     0BA4  0874               	movf	___flge@ff2,w
  1681     0BA5  0270               	subwf	___flge@ff1,w
  1682     0BA6                     u2235:
  1683     0BA6  1803               	skipnc
  1684     0BA7  2BA9               	goto	u2231
  1685     0BA8  2BAA               	goto	u2230
  1686     0BA9                     u2231:
  1687     0BA9  2BAC               	goto	l1723
  1688     0BAA                     u2230:
  1689     0BAA                     l1721:
  1690     0BAA  1003               	clrc
  1691     0BAB  2BAD               	goto	l363
  1692     0BAC                     l1723:
  1693     0BAC  1403               	setc
  1694     0BAD                     l363:
  1695     0BAD  0008               	return
  1696     0BAE                     __end_of___flge:
  1697                           
  1698                           	psect	text4
  1699     0D6A                     __ptext4:	
  1700 ;; *************** function _LCD_output *****************
  1701 ;; Defined at:
  1702 ;;		line 102 in file "LCD_batt.c"
  1703 ;; Parameters:    Size  Location     Type
  1704 ;;  i               4   71[BANK0 ] float 
  1705 ;; Auto vars:     Size  Location     Type
  1706 ;;		None
  1707 ;; Return value:  Size  Location     Type
  1708 ;;                  1    wreg      void 
  1709 ;; Registers used:
  1710 ;;		wreg, status,2, status,0, btemp+1, pclath, cstack
  1711 ;; Tracked objects:
  1712 ;;		On entry : 0/0
  1713 ;;		On exit  : 0/0
  1714 ;;		Unchanged: 0/0
  1715 ;; Data sizes:     COMMON   BANK0   BANK1   BANK3   BANK2
  1716 ;;      Params:         0       4       0       0       0
  1717 ;;      Locals:         0       0       4       0       0
  1718 ;;      Temps:          0       2       0       0       0
  1719 ;;      Totals:         0       6       4       0       0
  1720 ;;Total ram usage:       10 bytes
  1721 ;; Hardware stack levels used: 1
  1722 ;; Hardware stack levels required when called: 2
  1723 ;; This function calls:
  1724 ;;		_LCD_command
  1725 ;;		_LCD_data
  1726 ;;		___fldiv
  1727 ;;		___flmul
  1728 ;;		___flsub
  1729 ;;		___fltol
  1730 ;;		___wmul
  1731 ;;		___xxtofl
  1732 ;; This function is called by:
  1733 ;;		_keyscane
  1734 ;; This function uses a non-reentrant model
  1735 ;;
  1736                           
  1737     0D6A                     _LCD_output:	
  1738                           ;psect for function _LCD_output
  1739                           
  1740     0D6A                     l2107:	
  1741                           ;incstack = 0
  1742                           ; Regs used in _LCD_output: [wreg+status,2+status,0+btemp+1+pclath+cstack]
  1743                           
  1744                           
  1745                           ;LCD_batt.c: 103:     d0 = (i - (int) i)*10;
  1746     0D6A  1283               	bcf	3,5	;RP0=0, select bank0
  1747     0D6B  1303               	bcf	3,6	;RP1=0, select bank0
  1748     0D6C  086A               	movf	LCD_output@i+3,w
  1749     0D6D  00CC               	movwf	___flsub@b+3
  1750     0D6E  0869               	movf	LCD_output@i+2,w
  1751     0D6F  00CB               	movwf	___flsub@b+2
  1752     0D70  0868               	movf	LCD_output@i+1,w
  1753     0D71  00CA               	movwf	___flsub@b+1
  1754     0D72  0867               	movf	LCD_output@i,w
  1755     0D73  00C9               	movwf	___flsub@b
  1756     0D74  086A               	movf	LCD_output@i+3,w
  1757     0D75  00B0               	movwf	___fltol@f1+3
  1758     0D76  0869               	movf	LCD_output@i+2,w
  1759     0D77  00AF               	movwf	___fltol@f1+2
  1760     0D78  0868               	movf	LCD_output@i+1,w
  1761     0D79  00AE               	movwf	___fltol@f1+1
  1762     0D7A  0867               	movf	LCD_output@i,w
  1763     0D7B  00AD               	movwf	___fltol@f1
  1764     0D7C  120A  158A  2294  120A  158A  	fcall	___fltol
  1765     0D81  1283               	bcf	3,5	;RP0=0, select bank0
  1766     0D82  1303               	bcf	3,6	;RP1=0, select bank0
  1767     0D83  082D               	movf	?___fltol,w
  1768     0D84  00B7               	movwf	___xxtofl@val
  1769     0D85  082E               	movf	?___fltol+1,w
  1770     0D86  00B8               	movwf	___xxtofl@val+1
  1771     0D87  3000               	movlw	0
  1772     0D88  1BB8               	btfsc	___xxtofl@val+1,7
  1773     0D89  30FF               	movlw	255
  1774     0D8A  00B9               	movwf	___xxtofl@val+2
  1775     0D8B  00BA               	movwf	___xxtofl@val+3
  1776     0D8C  3001               	movlw	1
  1777     0D8D  120A  158A  23AE  120A  158A  	fcall	___xxtofl
  1778     0D92  1283               	bcf	3,5	;RP0=0, select bank0
  1779     0D93  1303               	bcf	3,6	;RP1=0, select bank0
  1780     0D94  083A               	movf	?___xxtofl+3,w
  1781     0D95  00C8               	movwf	___flsub@a+3
  1782     0D96  0839               	movf	?___xxtofl+2,w
  1783     0D97  00C7               	movwf	___flsub@a+2
  1784     0D98  0838               	movf	?___xxtofl+1,w
  1785     0D99  00C6               	movwf	___flsub@a+1
  1786     0D9A  0837               	movf	?___xxtofl,w
  1787     0D9B  00C5               	movwf	___flsub@a
  1788     0D9C  120A  158A  21AD  120A  158A  	fcall	___flsub
  1789     0DA1  1283               	bcf	3,5	;RP0=0, select bank0
  1790     0DA2  1303               	bcf	3,6	;RP1=0, select bank0
  1791     0DA3  0848               	movf	?___flsub+3,w
  1792     0DA4  00D4               	movwf	___flmul@a+3
  1793     0DA5  0847               	movf	?___flsub+2,w
  1794     0DA6  00D3               	movwf	___flmul@a+2
  1795     0DA7  0846               	movf	?___flsub+1,w
  1796     0DA8  00D2               	movwf	___flmul@a+1
  1797     0DA9  0845               	movf	?___flsub,w
  1798     0DAA  00D1               	movwf	___flmul@a
  1799     0DAB  3041               	movlw	65
  1800     0DAC  00D0               	movwf	___flmul@b+3
  1801     0DAD  3020               	movlw	32
  1802     0DAE  00CF               	movwf	___flmul@b+2
  1803     0DAF  3000               	movlw	0
  1804     0DB0  00CE               	movwf	___flmul@b+1
  1805     0DB1  3000               	movlw	0
  1806     0DB2  00CD               	movwf	___flmul@b
  1807     0DB3  120A  118A  249D  120A  158A  	fcall	___flmul
  1808     0DB8  1283               	bcf	3,5	;RP0=0, select bank0
  1809     0DB9  1303               	bcf	3,6	;RP1=0, select bank0
  1810     0DBA  0850               	movf	?___flmul+3,w
  1811     0DBB  1683               	bsf	3,5	;RP0=1, select bank1
  1812     0DBC  1303               	bcf	3,6	;RP1=0, select bank1
  1813     0DBD  00EA               	movwf	(_LCD_output$688+3)^(0+128)
  1814     0DBE  1283               	bcf	3,5	;RP0=0, select bank0
  1815     0DBF  1303               	bcf	3,6	;RP1=0, select bank0
  1816     0DC0  084F               	movf	?___flmul+2,w
  1817     0DC1  1683               	bsf	3,5	;RP0=1, select bank1
  1818     0DC2  1303               	bcf	3,6	;RP1=0, select bank1
  1819     0DC3  00E9               	movwf	(_LCD_output$688+2)^(0+128)
  1820     0DC4  1283               	bcf	3,5	;RP0=0, select bank0
  1821     0DC5  1303               	bcf	3,6	;RP1=0, select bank0
  1822     0DC6  084E               	movf	?___flmul+1,w
  1823     0DC7  1683               	bsf	3,5	;RP0=1, select bank1
  1824     0DC8  1303               	bcf	3,6	;RP1=0, select bank1
  1825     0DC9  00E8               	movwf	(_LCD_output$688+1)^(0+128)
  1826     0DCA  1283               	bcf	3,5	;RP0=0, select bank0
  1827     0DCB  1303               	bcf	3,6	;RP1=0, select bank0
  1828     0DCC  084D               	movf	?___flmul,w
  1829     0DCD  1683               	bsf	3,5	;RP0=1, select bank1
  1830     0DCE  1303               	bcf	3,6	;RP1=0, select bank1
  1831     0DCF  00E7               	movwf	_LCD_output$688^(0+128)
  1832                           
  1833                           ;LCD_batt.c: 103:     d0 = (i - (int) i)*10;
  1834     0DD0  086A               	movf	(_LCD_output$688+3)^(0+128),w
  1835     0DD1  1283               	bcf	3,5	;RP0=0, select bank0
  1836     0DD2  1303               	bcf	3,6	;RP1=0, select bank0
  1837     0DD3  00B0               	movwf	___fltol@f1+3
  1838     0DD4  1683               	bsf	3,5	;RP0=1, select bank1
  1839     0DD5  1303               	bcf	3,6	;RP1=0, select bank1
  1840     0DD6  0869               	movf	(_LCD_output$688+2)^(0+128),w
  1841     0DD7  1283               	bcf	3,5	;RP0=0, select bank0
  1842     0DD8  1303               	bcf	3,6	;RP1=0, select bank0
  1843     0DD9  00AF               	movwf	___fltol@f1+2
  1844     0DDA  1683               	bsf	3,5	;RP0=1, select bank1
  1845     0DDB  1303               	bcf	3,6	;RP1=0, select bank1
  1846     0DDC  0868               	movf	(_LCD_output$688+1)^(0+128),w
  1847     0DDD  1283               	bcf	3,5	;RP0=0, select bank0
  1848     0DDE  1303               	bcf	3,6	;RP1=0, select bank0
  1849     0DDF  00AE               	movwf	___fltol@f1+1
  1850     0DE0  1683               	bsf	3,5	;RP0=1, select bank1
  1851     0DE1  1303               	bcf	3,6	;RP1=0, select bank1
  1852     0DE2  0867               	movf	_LCD_output$688^(0+128),w
  1853     0DE3  1283               	bcf	3,5	;RP0=0, select bank0
  1854     0DE4  1303               	bcf	3,6	;RP1=0, select bank0
  1855     0DE5  00AD               	movwf	___fltol@f1
  1856     0DE6  120A  158A  2294  120A  158A  	fcall	___fltol
  1857     0DEB  1283               	bcf	3,5	;RP0=0, select bank0
  1858     0DEC  1303               	bcf	3,6	;RP1=0, select bank0
  1859     0DED  082D               	movf	?___fltol,w
  1860     0DEE  1683               	bsf	3,5	;RP0=1, select bank1
  1861     0DEF  1303               	bcf	3,6	;RP1=0, select bank1
  1862     0DF0  00E4               	movwf	_d0^(0+128)
  1863                           
  1864                           ;LCD_batt.c: 104:     d2 = (i / 10);
  1865     0DF1  1283               	bcf	3,5	;RP0=0, select bank0
  1866     0DF2  1303               	bcf	3,6	;RP1=0, select bank0
  1867     0DF3  086A               	movf	LCD_output@i+3,w
  1868     0DF4  00F7               	movwf	___fldiv@b+3
  1869     0DF5  0869               	movf	LCD_output@i+2,w
  1870     0DF6  00F6               	movwf	___fldiv@b+2
  1871     0DF7  0868               	movf	LCD_output@i+1,w
  1872     0DF8  00F5               	movwf	___fldiv@b+1
  1873     0DF9  0867               	movf	LCD_output@i,w
  1874     0DFA  00F4               	movwf	___fldiv@b
  1875     0DFB  3041               	movlw	65
  1876     0DFC  00F3               	movwf	___fldiv@a+3
  1877     0DFD  3020               	movlw	32
  1878     0DFE  00F2               	movwf	___fldiv@a+2
  1879     0DFF  3000               	movlw	0
  1880     0E00  00F1               	movwf	___fldiv@a+1
  1881     0E01  3000               	movlw	0
  1882     0E02  00F0               	movwf	___fldiv@a
  1883     0E03  120A  118A  2064  120A  158A  	fcall	___fldiv
  1884     0E08  0873               	movf	?___fldiv+3,w
  1885     0E09  1283               	bcf	3,5	;RP0=0, select bank0
  1886     0E0A  1303               	bcf	3,6	;RP1=0, select bank0
  1887     0E0B  00B0               	movwf	___fltol@f1+3
  1888     0E0C  0872               	movf	?___fldiv+2,w
  1889     0E0D  00AF               	movwf	___fltol@f1+2
  1890     0E0E  0871               	movf	?___fldiv+1,w
  1891     0E0F  00AE               	movwf	___fltol@f1+1
  1892     0E10  0870               	movf	?___fldiv,w
  1893     0E11  00AD               	movwf	___fltol@f1
  1894     0E12  120A  158A  2294  120A  158A  	fcall	___fltol
  1895     0E17  1283               	bcf	3,5	;RP0=0, select bank0
  1896     0E18  1303               	bcf	3,6	;RP1=0, select bank0
  1897     0E19  082D               	movf	?___fltol,w
  1898     0E1A  00EF               	movwf	_d2
  1899                           
  1900                           ;LCD_batt.c: 105:     d1 = (i - (d2 * 10));
  1901     0E1B  086A               	movf	LCD_output@i+3,w
  1902     0E1C  00CC               	movwf	___flsub@b+3
  1903     0E1D  0869               	movf	LCD_output@i+2,w
  1904     0E1E  00CB               	movwf	___flsub@b+2
  1905     0E1F  0868               	movf	LCD_output@i+1,w
  1906     0E20  00CA               	movwf	___flsub@b+1
  1907     0E21  0867               	movf	LCD_output@i,w
  1908     0E22  00C9               	movwf	___flsub@b
  1909     0E23  300A               	movlw	10
  1910     0E24  00F2               	movwf	___wmul@multiplicand
  1911     0E25  3000               	movlw	0
  1912     0E26  00F3               	movwf	___wmul@multiplicand+1
  1913     0E27  086F               	movf	_d2,w
  1914     0E28  00EB               	movwf	??_LCD_output
  1915     0E29  01EC               	clrf	??_LCD_output+1
  1916     0E2A  086B               	movf	??_LCD_output,w
  1917     0E2B  00F0               	movwf	___wmul@multiplier
  1918     0E2C  086C               	movf	??_LCD_output+1,w
  1919     0E2D  00F1               	movwf	___wmul@multiplier+1
  1920     0E2E  120A  158A  21D1  120A  158A  	fcall	___wmul
  1921     0E33  0870               	movf	?___wmul,w
  1922     0E34  1283               	bcf	3,5	;RP0=0, select bank0
  1923     0E35  1303               	bcf	3,6	;RP1=0, select bank0
  1924     0E36  00B7               	movwf	___xxtofl@val
  1925     0E37  0871               	movf	?___wmul+1,w
  1926     0E38  00B8               	movwf	___xxtofl@val+1
  1927     0E39  3000               	movlw	0
  1928     0E3A  1BB8               	btfsc	___xxtofl@val+1,7
  1929     0E3B  30FF               	movlw	255
  1930     0E3C  00B9               	movwf	___xxtofl@val+2
  1931     0E3D  00BA               	movwf	___xxtofl@val+3
  1932     0E3E  3001               	movlw	1
  1933     0E3F  120A  158A  23AE  120A  158A  	fcall	___xxtofl
  1934     0E44  1283               	bcf	3,5	;RP0=0, select bank0
  1935     0E45  1303               	bcf	3,6	;RP1=0, select bank0
  1936     0E46  083A               	movf	?___xxtofl+3,w
  1937     0E47  00C8               	movwf	___flsub@a+3
  1938     0E48  0839               	movf	?___xxtofl+2,w
  1939     0E49  00C7               	movwf	___flsub@a+2
  1940     0E4A  0838               	movf	?___xxtofl+1,w
  1941     0E4B  00C6               	movwf	___flsub@a+1
  1942     0E4C  0837               	movf	?___xxtofl,w
  1943     0E4D  00C5               	movwf	___flsub@a
  1944     0E4E  120A  158A  21AD  120A  158A  	fcall	___flsub
  1945     0E53  1283               	bcf	3,5	;RP0=0, select bank0
  1946     0E54  1303               	bcf	3,6	;RP1=0, select bank0
  1947     0E55  0848               	movf	?___flsub+3,w
  1948     0E56  00B0               	movwf	___fltol@f1+3
  1949     0E57  0847               	movf	?___flsub+2,w
  1950     0E58  00AF               	movwf	___fltol@f1+2
  1951     0E59  0846               	movf	?___flsub+1,w
  1952     0E5A  00AE               	movwf	___fltol@f1+1
  1953     0E5B  0845               	movf	?___flsub,w
  1954     0E5C  00AD               	movwf	___fltol@f1
  1955     0E5D  120A  158A  2294  120A  158A  	fcall	___fltol
  1956     0E62  1283               	bcf	3,5	;RP0=0, select bank0
  1957     0E63  1303               	bcf	3,6	;RP1=0, select bank0
  1958     0E64  082D               	movf	?___fltol,w
  1959     0E65  1683               	bsf	3,5	;RP0=1, select bank1
  1960     0E66  1303               	bcf	3,6	;RP1=0, select bank1
  1961     0E67  00E5               	movwf	_d1^(0+128)
  1962                           
  1963                           ;LCD_batt.c: 107:     LCD_command(0x89);
  1964     0E68  3089               	movlw	137
  1965     0E69  120A  118A  200D  120A  158A  	fcall	_LCD_command
  1966                           
  1967                           ;LCD_batt.c: 108:     LCD_data(0x30 + d2);
  1968     0E6E  1283               	bcf	3,5	;RP0=0, select bank0
  1969     0E6F  1303               	bcf	3,6	;RP1=0, select bank0
  1970     0E70  086F               	movf	_d2,w
  1971     0E71  3E30               	addlw	48
  1972     0E72  120A  158A  2199  120A  158A  	fcall	_LCD_data
  1973                           
  1974                           ;LCD_batt.c: 109:     LCD_command(0x8A);
  1975     0E77  308A               	movlw	138
  1976     0E78  120A  118A  200D  120A  158A  	fcall	_LCD_command
  1977                           
  1978                           ;LCD_batt.c: 110:     LCD_data(0x30 + d1);
  1979     0E7D  1683               	bsf	3,5	;RP0=1, select bank1
  1980     0E7E  1303               	bcf	3,6	;RP1=0, select bank1
  1981     0E7F  0865               	movf	_d1^(0+128),w
  1982     0E80  3E30               	addlw	48
  1983     0E81  120A  158A  2199  120A  158A  	fcall	_LCD_data
  1984                           
  1985                           ;LCD_batt.c: 111:     LCD_command(0x8B);
  1986     0E86  308B               	movlw	139
  1987     0E87  120A  118A  200D  120A  158A  	fcall	_LCD_command
  1988                           
  1989                           ;LCD_batt.c: 112:     LCD_data('.');
  1990     0E8C  302E               	movlw	46
  1991     0E8D  120A  158A  2199  120A  158A  	fcall	_LCD_data
  1992                           
  1993                           ;LCD_batt.c: 113:     LCD_command(0x8C);
  1994     0E92  308C               	movlw	140
  1995     0E93  120A  118A  200D  120A  158A  	fcall	_LCD_command
  1996                           
  1997                           ;LCD_batt.c: 114:     LCD_data(0x30 + d0);
  1998     0E98  1683               	bsf	3,5	;RP0=1, select bank1
  1999     0E99  1303               	bcf	3,6	;RP1=0, select bank1
  2000     0E9A  0864               	movf	_d0^(0+128),w
  2001     0E9B  3E30               	addlw	48
  2002     0E9C  120A  158A  2199  120A  158A  	fcall	_LCD_data
  2003     0EA1                     l82:
  2004     0EA1  0008               	return
  2005     0EA2                     __end_of_LCD_output:
  2006                           
  2007                           	psect	text5
  2008     0BAE                     __ptext5:	
  2009 ;; *************** function ___xxtofl *****************
  2010 ;; Defined at:
  2011 ;;		line 10 in file "C:\Program Files\Microchip\xc8\v2.45\pic\sources\c99\common\xxtofl.c"
  2012 ;; Parameters:    Size  Location     Type
  2013 ;;  sign            1    wreg     unsigned char 
  2014 ;;  val             4   23[BANK0 ] long 
  2015 ;; Auto vars:     Size  Location     Type
  2016 ;;  sign            1   31[BANK0 ] unsigned char 
  2017 ;;  arg             4   33[BANK0 ] unsigned long 
  2018 ;;  exp             1   32[BANK0 ] unsigned char 
  2019 ;; Return value:  Size  Location     Type
  2020 ;;                  4   23[BANK0 ] unsigned char 
  2021 ;; Registers used:
  2022 ;;		wreg, status,2, status,0, btemp+1
  2023 ;; Tracked objects:
  2024 ;;		On entry : 0/0
  2025 ;;		On exit  : 0/0
  2026 ;;		Unchanged: 0/0
  2027 ;; Data sizes:     COMMON   BANK0   BANK1   BANK3   BANK2
  2028 ;;      Params:         0       4       0       0       0
  2029 ;;      Locals:         0       6       0       0       0
  2030 ;;      Temps:          0       4       0       0       0
  2031 ;;      Totals:         0      14       0       0       0
  2032 ;;Total ram usage:       14 bytes
  2033 ;; Hardware stack levels used: 1
  2034 ;; This function calls:
  2035 ;;		Nothing
  2036 ;; This function is called by:
  2037 ;;		_LCD_output
  2038 ;; This function uses a non-reentrant model
  2039 ;;
  2040                           
  2041     0BAE                     ___xxtofl:	
  2042                           ;psect for function ___xxtofl
  2043                           
  2044                           
  2045                           ;incstack = 0
  2046                           ; Regs used in ___xxtofl: [wreg+status,2+status,0+btemp+1]
  2047                           ;___xxtofl@sign stored from wreg
  2048     0BAE  1283               	bcf	3,5	;RP0=0, select bank0
  2049     0BAF  1303               	bcf	3,6	;RP1=0, select bank0
  2050     0BB0  00BF               	movwf	___xxtofl@sign
  2051     0BB1                     l2059:
  2052     0BB1  083F               	movf	___xxtofl@sign,w
  2053     0BB2  1903               	btfsc	3,2
  2054     0BB3  2BB5               	goto	u3011
  2055     0BB4  2BB6               	goto	u3010
  2056     0BB5                     u3011:
  2057     0BB5  2BCA               	goto	l2065
  2058     0BB6                     u3010:
  2059     0BB6                     l2061:
  2060     0BB6  1FBA               	btfss	___xxtofl@val+3,7
  2061     0BB7  2BB9               	goto	u3021
  2062     0BB8  2BBA               	goto	u3020
  2063     0BB9                     u3021:
  2064     0BB9  2BCA               	goto	l2065
  2065     0BBA                     u3020:
  2066     0BBA                     l2063:
  2067     0BBA  0937               	comf	___xxtofl@val,w
  2068     0BBB  00C1               	movwf	___xxtofl@arg
  2069     0BBC  0938               	comf	___xxtofl@val+1,w
  2070     0BBD  00C2               	movwf	___xxtofl@arg+1
  2071     0BBE  0939               	comf	___xxtofl@val+2,w
  2072     0BBF  00C3               	movwf	___xxtofl@arg+2
  2073     0BC0  093A               	comf	___xxtofl@val+3,w
  2074     0BC1  00C4               	movwf	___xxtofl@arg+3
  2075     0BC2  0AC1               	incf	___xxtofl@arg,f
  2076     0BC3  1903               	skipnz
  2077     0BC4  0AC2               	incf	___xxtofl@arg+1,f
  2078     0BC5  1903               	skipnz
  2079     0BC6  0AC3               	incf	___xxtofl@arg+2,f
  2080     0BC7  1903               	skipnz
  2081     0BC8  0AC4               	incf	___xxtofl@arg+3,f
  2082     0BC9  2BD2               	goto	l618
  2083     0BCA                     l2065:
  2084     0BCA  083A               	movf	___xxtofl@val+3,w
  2085     0BCB  00C4               	movwf	___xxtofl@arg+3
  2086     0BCC  0839               	movf	___xxtofl@val+2,w
  2087     0BCD  00C3               	movwf	___xxtofl@arg+2
  2088     0BCE  0838               	movf	___xxtofl@val+1,w
  2089     0BCF  00C2               	movwf	___xxtofl@arg+1
  2090     0BD0  0837               	movf	___xxtofl@val,w
  2091     0BD1  00C1               	movwf	___xxtofl@arg
  2092     0BD2                     l618:
  2093     0BD2  083A               	movf	___xxtofl@val+3,w
  2094     0BD3  0439               	iorwf	___xxtofl@val+2,w
  2095     0BD4  0438               	iorwf	___xxtofl@val+1,w
  2096     0BD5  0437               	iorwf	___xxtofl@val,w
  2097     0BD6  1D03               	skipz
  2098     0BD7  2BD9               	goto	u3031
  2099     0BD8  2BDA               	goto	u3030
  2100     0BD9                     u3031:
  2101     0BD9  2BE3               	goto	l2071
  2102     0BDA                     u3030:
  2103     0BDA                     l2067:
  2104     0BDA  3000               	movlw	0
  2105     0BDB  00BA               	movwf	?___xxtofl+3
  2106     0BDC  3000               	movlw	0
  2107     0BDD  00B9               	movwf	?___xxtofl+2
  2108     0BDE  3000               	movlw	0
  2109     0BDF  00B8               	movwf	?___xxtofl+1
  2110     0BE0  3000               	movlw	0
  2111     0BE1  00B7               	movwf	?___xxtofl
  2112     0BE2  2C67               	goto	l620
  2113     0BE3                     l2071:
  2114     0BE3  3096               	movlw	150
  2115     0BE4  00C0               	movwf	___xxtofl@exp
  2116     0BE5  2BF3               	goto	l2077
  2117     0BE6                     l2073:
  2118     0BE6  3001               	movlw	1
  2119     0BE7  00FF               	movwf	btemp+1
  2120     0BE8  087F               	movf	btemp+1,w
  2121     0BE9  07C0               	addwf	___xxtofl@exp,f
  2122     0BEA                     l2075:
  2123     0BEA  3001               	movlw	1
  2124     0BEB                     u3045:
  2125     0BEB  1003               	clrc
  2126     0BEC  0CC4               	rrf	___xxtofl@arg+3,f
  2127     0BED  0CC3               	rrf	___xxtofl@arg+2,f
  2128     0BEE  0CC2               	rrf	___xxtofl@arg+1,f
  2129     0BEF  0CC1               	rrf	___xxtofl@arg,f
  2130     0BF0  3EFF               	addlw	-1
  2131     0BF1  1D03               	skipz
  2132     0BF2  2BEB               	goto	u3045
  2133     0BF3                     l2077:
  2134     0BF3  30FE               	movlw	254
  2135     0BF4  0544               	andwf	___xxtofl@arg+3,w
  2136     0BF5  1D03               	btfss	3,2
  2137     0BF6  2BF8               	goto	u3051
  2138     0BF7  2BF9               	goto	u3050
  2139     0BF8                     u3051:
  2140     0BF8  2BE6               	goto	l2073
  2141     0BF9                     u3050:
  2142     0BF9  2C15               	goto	l2085
  2143     0BFA                     l2079:
  2144     0BFA  3001               	movlw	1
  2145     0BFB  00FF               	movwf	btemp+1
  2146     0BFC  087F               	movf	btemp+1,w
  2147     0BFD  07C0               	addwf	___xxtofl@exp,f
  2148     0BFE                     l2081:
  2149     0BFE  3001               	movlw	1
  2150     0BFF  07C1               	addwf	___xxtofl@arg,f
  2151     0C00  3000               	movlw	0
  2152     0C01  1803               	skipnc
  2153     0C02  3001               	movlw	1
  2154     0C03  07C2               	addwf	___xxtofl@arg+1,f
  2155     0C04  3000               	movlw	0
  2156     0C05  1803               	skipnc
  2157     0C06  3001               	movlw	1
  2158     0C07  07C3               	addwf	___xxtofl@arg+2,f
  2159     0C08  3000               	movlw	0
  2160     0C09  1803               	skipnc
  2161     0C0A  3001               	movlw	1
  2162     0C0B  07C4               	addwf	___xxtofl@arg+3,f
  2163     0C0C                     l2083:
  2164     0C0C  3001               	movlw	1
  2165     0C0D                     u3065:
  2166     0C0D  1003               	clrc
  2167     0C0E  0CC4               	rrf	___xxtofl@arg+3,f
  2168     0C0F  0CC3               	rrf	___xxtofl@arg+2,f
  2169     0C10  0CC2               	rrf	___xxtofl@arg+1,f
  2170     0C11  0CC1               	rrf	___xxtofl@arg,f
  2171     0C12  3EFF               	addlw	-1
  2172     0C13  1D03               	skipz
  2173     0C14  2C0D               	goto	u3065
  2174     0C15                     l2085:
  2175     0C15  30FF               	movlw	255
  2176     0C16  0544               	andwf	___xxtofl@arg+3,w
  2177     0C17  1D03               	btfss	3,2
  2178     0C18  2C1A               	goto	u3071
  2179     0C19  2C1B               	goto	u3070
  2180     0C1A                     u3071:
  2181     0C1A  2BFA               	goto	l2079
  2182     0C1B                     u3070:
  2183     0C1B  2C27               	goto	l2089
  2184     0C1C                     l2087:
  2185     0C1C  3001               	movlw	1
  2186     0C1D  02C0               	subwf	___xxtofl@exp,f
  2187     0C1E  3001               	movlw	1
  2188     0C1F  00BB               	movwf	??___xxtofl
  2189     0C20                     u3085:
  2190     0C20  1003               	clrc
  2191     0C21  0DC1               	rlf	___xxtofl@arg,f
  2192     0C22  0DC2               	rlf	___xxtofl@arg+1,f
  2193     0C23  0DC3               	rlf	___xxtofl@arg+2,f
  2194     0C24  0DC4               	rlf	___xxtofl@arg+3,f
  2195     0C25  0BBB               	decfsz	??___xxtofl,f
  2196     0C26  2C20               	goto	u3085
  2197     0C27                     l2089:
  2198     0C27  1BC3               	btfsc	___xxtofl@arg+2,7
  2199     0C28  2C2A               	goto	u3091
  2200     0C29  2C2B               	goto	u3090
  2201     0C2A                     u3091:
  2202     0C2A  2C31               	goto	l631
  2203     0C2B                     u3090:
  2204     0C2B                     l2091:
  2205     0C2B  3002               	movlw	2
  2206     0C2C  0240               	subwf	___xxtofl@exp,w
  2207     0C2D  1803               	skipnc
  2208     0C2E  2C30               	goto	u3101
  2209     0C2F  2C31               	goto	u3100
  2210     0C30                     u3101:
  2211     0C30  2C1C               	goto	l2087
  2212     0C31                     u3100:
  2213     0C31                     l631:
  2214     0C31  1840               	btfsc	___xxtofl@exp,0
  2215     0C32  2C34               	goto	u3111
  2216     0C33  2C35               	goto	u3110
  2217     0C34                     u3111:
  2218     0C34  2C3D               	goto	l632
  2219     0C35                     u3110:
  2220     0C35                     l2093:
  2221     0C35  30FF               	movlw	255
  2222     0C36  05C1               	andwf	___xxtofl@arg,f
  2223     0C37  30FF               	movlw	255
  2224     0C38  05C2               	andwf	___xxtofl@arg+1,f
  2225     0C39  307F               	movlw	127
  2226     0C3A  05C3               	andwf	___xxtofl@arg+2,f
  2227     0C3B  30FF               	movlw	255
  2228     0C3C  05C4               	andwf	___xxtofl@arg+3,f
  2229     0C3D                     l632:
  2230     0C3D  1003               	clrc
  2231     0C3E  0CC0               	rrf	___xxtofl@exp,f
  2232     0C3F                     l2095:
  2233     0C3F  0840               	movf	___xxtofl@exp,w
  2234     0C40  00BB               	movwf	??___xxtofl
  2235     0C41  01BC               	clrf	??___xxtofl+1
  2236     0C42  01BD               	clrf	??___xxtofl+2
  2237     0C43  01BE               	clrf	??___xxtofl+3
  2238     0C44  3018               	movlw	24
  2239     0C45                     u3125:
  2240     0C45  1003               	clrc
  2241     0C46  0DBB               	rlf	??___xxtofl,f
  2242     0C47  0DBC               	rlf	??___xxtofl+1,f
  2243     0C48  0DBD               	rlf	??___xxtofl+2,f
  2244     0C49  0DBE               	rlf	??___xxtofl+3,f
  2245     0C4A                     u3120:
  2246     0C4A  3EFF               	addlw	-1
  2247     0C4B  1D03               	skipz
  2248     0C4C  2C45               	goto	u3125
  2249     0C4D  083B               	movf	??___xxtofl,w
  2250     0C4E  04C1               	iorwf	___xxtofl@arg,f
  2251     0C4F  083C               	movf	??___xxtofl+1,w
  2252     0C50  04C2               	iorwf	___xxtofl@arg+1,f
  2253     0C51  083D               	movf	??___xxtofl+2,w
  2254     0C52  04C3               	iorwf	___xxtofl@arg+2,f
  2255     0C53  083E               	movf	??___xxtofl+3,w
  2256     0C54  04C4               	iorwf	___xxtofl@arg+3,f
  2257     0C55                     l2097:
  2258     0C55  083F               	movf	___xxtofl@sign,w
  2259     0C56  1903               	btfsc	3,2
  2260     0C57  2C59               	goto	u3131
  2261     0C58  2C5A               	goto	u3130
  2262     0C59                     u3131:
  2263     0C59  2C5F               	goto	l2103
  2264     0C5A                     u3130:
  2265     0C5A                     l2099:
  2266     0C5A  1FBA               	btfss	___xxtofl@val+3,7
  2267     0C5B  2C5D               	goto	u3141
  2268     0C5C  2C5E               	goto	u3140
  2269     0C5D                     u3141:
  2270     0C5D  2C5F               	goto	l2103
  2271     0C5E                     u3140:
  2272     0C5E                     l2101:
  2273     0C5E  17C4               	bsf	___xxtofl@arg+3,7
  2274     0C5F                     l2103:
  2275     0C5F  0844               	movf	___xxtofl@arg+3,w
  2276     0C60  00BA               	movwf	?___xxtofl+3
  2277     0C61  0843               	movf	___xxtofl@arg+2,w
  2278     0C62  00B9               	movwf	?___xxtofl+2
  2279     0C63  0842               	movf	___xxtofl@arg+1,w
  2280     0C64  00B8               	movwf	?___xxtofl+1
  2281     0C65  0841               	movf	___xxtofl@arg,w
  2282     0C66  00B7               	movwf	?___xxtofl
  2283     0C67                     l620:
  2284     0C67  0008               	return
  2285     0C68                     __end_of___xxtofl:
  2286                           
  2287                           	psect	text6
  2288     09D1                     __ptext6:	
  2289 ;; *************** function ___wmul *****************
  2290 ;; Defined at:
  2291 ;;		line 15 in file "C:\Program Files\Microchip\xc8\v2.45\pic\sources\c99\common\Umul16.c"
  2292 ;; Parameters:    Size  Location     Type
  2293 ;;  multiplier      2    0[COMMON] unsigned int 
  2294 ;;  multiplicand    2    2[COMMON] unsigned int 
  2295 ;; Auto vars:     Size  Location     Type
  2296 ;;  product         2    4[COMMON] unsigned int 
  2297 ;; Return value:  Size  Location     Type
  2298 ;;                  2    0[COMMON] unsigned int 
  2299 ;; Registers used:
  2300 ;;		wreg, status,2, status,0
  2301 ;; Tracked objects:
  2302 ;;		On entry : 0/0
  2303 ;;		On exit  : 0/0
  2304 ;;		Unchanged: 0/0
  2305 ;; Data sizes:     COMMON   BANK0   BANK1   BANK3   BANK2
  2306 ;;      Params:         4       0       0       0       0
  2307 ;;      Locals:         2       0       0       0       0
  2308 ;;      Temps:          0       0       0       0       0
  2309 ;;      Totals:         6       0       0       0       0
  2310 ;;Total ram usage:        6 bytes
  2311 ;; Hardware stack levels used: 1
  2312 ;; This function calls:
  2313 ;;		Nothing
  2314 ;; This function is called by:
  2315 ;;		_LCD_output
  2316 ;; This function uses a non-reentrant model
  2317 ;;
  2318                           
  2319     09D1                     ___wmul:	
  2320                           ;psect for function ___wmul
  2321                           
  2322     09D1                     l1693:	
  2323                           ;incstack = 0
  2324                           ; Regs used in ___wmul: [wreg+status,2+status,0]
  2325                           
  2326     09D1  01F4               	clrf	___wmul@product
  2327     09D2  01F5               	clrf	___wmul@product+1
  2328     09D3                     l1695:
  2329     09D3  1C70               	btfss	___wmul@multiplier,0
  2330     09D4  29D6               	goto	u2131
  2331     09D5  29D7               	goto	u2130
  2332     09D6                     u2131:
  2333     09D6  29DD               	goto	l177
  2334     09D7                     u2130:
  2335     09D7                     l1697:
  2336     09D7  0872               	movf	___wmul@multiplicand,w
  2337     09D8  07F4               	addwf	___wmul@product,f
  2338     09D9  1803               	skipnc
  2339     09DA  0AF5               	incf	___wmul@product+1,f
  2340     09DB  0873               	movf	___wmul@multiplicand+1,w
  2341     09DC  07F5               	addwf	___wmul@product+1,f
  2342     09DD                     l177:
  2343     09DD  3001               	movlw	1
  2344     09DE                     u2145:
  2345     09DE  1003               	clrc
  2346     09DF  0DF2               	rlf	___wmul@multiplicand,f
  2347     09E0  0DF3               	rlf	___wmul@multiplicand+1,f
  2348     09E1  3EFF               	addlw	-1
  2349     09E2  1D03               	skipz
  2350     09E3  29DE               	goto	u2145
  2351     09E4                     l1699:
  2352     09E4  3001               	movlw	1
  2353     09E5                     u2155:
  2354     09E5  1003               	clrc
  2355     09E6  0CF1               	rrf	___wmul@multiplier+1,f
  2356     09E7  0CF0               	rrf	___wmul@multiplier,f
  2357     09E8  3EFF               	addlw	-1
  2358     09E9  1D03               	skipz
  2359     09EA  29E5               	goto	u2155
  2360     09EB                     l1701:
  2361     09EB  0870               	movf	___wmul@multiplier,w
  2362     09EC  0471               	iorwf	___wmul@multiplier+1,w
  2363     09ED  1D03               	btfss	3,2
  2364     09EE  29F0               	goto	u2161
  2365     09EF  29F1               	goto	u2160
  2366     09F0                     u2161:
  2367     09F0  29D3               	goto	l1695
  2368     09F1                     u2160:
  2369     09F1                     l1703:
  2370     09F1  0875               	movf	___wmul@product+1,w
  2371     09F2  00F1               	movwf	?___wmul+1
  2372     09F3  0874               	movf	___wmul@product,w
  2373     09F4  00F0               	movwf	?___wmul
  2374     09F5                     l179:
  2375     09F5  0008               	return
  2376     09F6                     __end_of___wmul:
  2377                           
  2378                           	psect	text7
  2379     0A94                     __ptext7:	
  2380 ;; *************** function ___fltol *****************
  2381 ;; Defined at:
  2382 ;;		line 43 in file "C:\Program Files\Microchip\xc8\v2.45\pic\sources\c99\common\fltol.c"
  2383 ;; Parameters:    Size  Location     Type
  2384 ;;  f1              4   13[BANK0 ] unsigned int 
  2385 ;; Auto vars:     Size  Location     Type
  2386 ;;  exp1            1   22[BANK0 ] unsigned char 
  2387 ;;  sign1           1   21[BANK0 ] unsigned char 
  2388 ;; Return value:  Size  Location     Type
  2389 ;;                  4   13[BANK0 ] long 
  2390 ;; Registers used:
  2391 ;;		wreg, status,2, status,0, btemp+1
  2392 ;; Tracked objects:
  2393 ;;		On entry : 0/0
  2394 ;;		On exit  : 0/0
  2395 ;;		Unchanged: 0/0
  2396 ;; Data sizes:     COMMON   BANK0   BANK1   BANK3   BANK2
  2397 ;;      Params:         0       4       0       0       0
  2398 ;;      Locals:         0       2       0       0       0
  2399 ;;      Temps:          0       4       0       0       0
  2400 ;;      Totals:         0      10       0       0       0
  2401 ;;Total ram usage:       10 bytes
  2402 ;; Hardware stack levels used: 1
  2403 ;; This function calls:
  2404 ;;		Nothing
  2405 ;; This function is called by:
  2406 ;;		_LCD_output
  2407 ;; This function uses a non-reentrant model
  2408 ;;
  2409                           
  2410     0A94                     ___fltol:	
  2411                           ;psect for function ___fltol
  2412                           
  2413     0A94                     l1727:	
  2414                           ;incstack = 0
  2415                           ; Regs used in ___fltol: [wreg+status,2+status,0+btemp+1]
  2416                           
  2417     0A94  1003               	clrc
  2418     0A95  1283               	bcf	3,5	;RP0=0, select bank0
  2419     0A96  1303               	bcf	3,6	;RP1=0, select bank0
  2420     0A97  0D2F               	rlf	___fltol@f1+2,w
  2421     0A98  0D30               	rlf	___fltol@f1+3,w
  2422     0A99  00B6               	movwf	___fltol@exp1
  2423     0A9A  0836               	movf	___fltol@exp1,w
  2424     0A9B  1D03               	btfss	3,2
  2425     0A9C  2A9E               	goto	u2241
  2426     0A9D  2A9F               	goto	u2240
  2427     0A9E                     u2241:
  2428     0A9E  2AA8               	goto	l1733
  2429     0A9F                     u2240:
  2430     0A9F                     l1729:
  2431     0A9F  3000               	movlw	0
  2432     0AA0  00B0               	movwf	?___fltol+3
  2433     0AA1  3000               	movlw	0
  2434     0AA2  00AF               	movwf	?___fltol+2
  2435     0AA3  3000               	movlw	0
  2436     0AA4  00AE               	movwf	?___fltol+1
  2437     0AA5  3000               	movlw	0
  2438     0AA6  00AD               	movwf	?___fltol
  2439     0AA7  2B0B               	goto	l371
  2440     0AA8                     l1733:
  2441     0AA8  082D               	movf	___fltol@f1,w
  2442     0AA9  00B1               	movwf	??___fltol
  2443     0AAA  082E               	movf	___fltol@f1+1,w
  2444     0AAB  00B2               	movwf	??___fltol+1
  2445     0AAC  082F               	movf	___fltol@f1+2,w
  2446     0AAD  00B3               	movwf	??___fltol+2
  2447     0AAE  0830               	movf	___fltol@f1+3,w
  2448     0AAF  00B4               	movwf	??___fltol+3
  2449     0AB0  301F               	movlw	31
  2450     0AB1                     u2255:
  2451     0AB1  1003               	clrc
  2452     0AB2  0CB4               	rrf	??___fltol+3,f
  2453     0AB3  0CB3               	rrf	??___fltol+2,f
  2454     0AB4  0CB2               	rrf	??___fltol+1,f
  2455     0AB5  0CB1               	rrf	??___fltol,f
  2456     0AB6                     u2250:
  2457     0AB6  3EFF               	addlw	-1
  2458     0AB7  1D03               	skipz
  2459     0AB8  2AB1               	goto	u2255
  2460     0AB9  0831               	movf	??___fltol,w
  2461     0ABA  00B5               	movwf	___fltol@sign1
  2462     0ABB                     l1735:
  2463     0ABB  17AF               	bsf	___fltol@f1+2,7
  2464     0ABC                     l1737:
  2465     0ABC  30FF               	movlw	255
  2466     0ABD  05AD               	andwf	___fltol@f1,f
  2467     0ABE  30FF               	movlw	255
  2468     0ABF  05AE               	andwf	___fltol@f1+1,f
  2469     0AC0  30FF               	movlw	255
  2470     0AC1  05AF               	andwf	___fltol@f1+2,f
  2471     0AC2  3000               	movlw	0
  2472     0AC3  05B0               	andwf	___fltol@f1+3,f
  2473     0AC4                     l1739:
  2474     0AC4  3096               	movlw	150
  2475     0AC5  02B6               	subwf	___fltol@exp1,f
  2476     0AC6                     l1741:
  2477     0AC6  1FB6               	btfss	___fltol@exp1,7
  2478     0AC7  2AC9               	goto	u2261
  2479     0AC8  2ACA               	goto	u2260
  2480     0AC9                     u2261:
  2481     0AC9  2AE4               	goto	l1753
  2482     0ACA                     u2260:
  2483     0ACA                     l1743:
  2484     0ACA  0836               	movf	___fltol@exp1,w
  2485     0ACB  3A80               	xorlw	128
  2486     0ACC  3E97               	addlw	151
  2487     0ACD  1803               	skipnc
  2488     0ACE  2AD0               	goto	u2271
  2489     0ACF  2AD1               	goto	u2270
  2490     0AD0                     u2271:
  2491     0AD0  2AD2               	goto	l1749
  2492     0AD1                     u2270:
  2493     0AD1  2A9F               	goto	l1729
  2494     0AD2                     l1749:
  2495     0AD2  3001               	movlw	1
  2496     0AD3                     u2285:
  2497     0AD3  1003               	clrc
  2498     0AD4  0CB0               	rrf	___fltol@f1+3,f
  2499     0AD5  0CAF               	rrf	___fltol@f1+2,f
  2500     0AD6  0CAE               	rrf	___fltol@f1+1,f
  2501     0AD7  0CAD               	rrf	___fltol@f1,f
  2502     0AD8  3EFF               	addlw	-1
  2503     0AD9  1D03               	skipz
  2504     0ADA  2AD3               	goto	u2285
  2505     0ADB                     l1751:
  2506     0ADB  3001               	movlw	1
  2507     0ADC  00FF               	movwf	btemp+1
  2508     0ADD  087F               	movf	btemp+1,w
  2509     0ADE  07B6               	addwf	___fltol@exp1,f
  2510     0ADF  1D03               	btfss	3,2
  2511     0AE0  2AE2               	goto	u2291
  2512     0AE1  2AE3               	goto	u2290
  2513     0AE2                     u2291:
  2514     0AE2  2AD2               	goto	l1749
  2515     0AE3                     u2290:
  2516     0AE3  2AFB               	goto	l1761
  2517     0AE4                     l1753:
  2518     0AE4  3020               	movlw	32
  2519     0AE5  0236               	subwf	___fltol@exp1,w
  2520     0AE6  1C03               	skipc
  2521     0AE7  2AE9               	goto	u2301
  2522     0AE8  2AEA               	goto	u2300
  2523     0AE9                     u2301:
  2524     0AE9  2AF6               	goto	l378
  2525     0AEA                     u2300:
  2526     0AEA  2A9F               	goto	l1729
  2527     0AEB                     l1759:
  2528     0AEB  3001               	movlw	1
  2529     0AEC  00B1               	movwf	??___fltol
  2530     0AED                     u2315:
  2531     0AED  1003               	clrc
  2532     0AEE  0DAD               	rlf	___fltol@f1,f
  2533     0AEF  0DAE               	rlf	___fltol@f1+1,f
  2534     0AF0  0DAF               	rlf	___fltol@f1+2,f
  2535     0AF1  0DB0               	rlf	___fltol@f1+3,f
  2536     0AF2  0BB1               	decfsz	??___fltol,f
  2537     0AF3  2AED               	goto	u2315
  2538     0AF4  3001               	movlw	1
  2539     0AF5  02B6               	subwf	___fltol@exp1,f
  2540     0AF6                     l378:
  2541     0AF6  0836               	movf	___fltol@exp1,w
  2542     0AF7  1D03               	btfss	3,2
  2543     0AF8  2AFA               	goto	u2321
  2544     0AF9  2AFB               	goto	u2320
  2545     0AFA                     u2321:
  2546     0AFA  2AEB               	goto	l1759
  2547     0AFB                     u2320:
  2548     0AFB                     l1761:
  2549     0AFB  0835               	movf	___fltol@sign1,w
  2550     0AFC  1903               	btfsc	3,2
  2551     0AFD  2AFF               	goto	u2331
  2552     0AFE  2B00               	goto	u2330
  2553     0AFF                     u2331:
  2554     0AFF  2B0B               	goto	l381
  2555     0B00                     u2330:
  2556     0B00                     l1763:
  2557     0B00  09AD               	comf	___fltol@f1,f
  2558     0B01  09AE               	comf	___fltol@f1+1,f
  2559     0B02  09AF               	comf	___fltol@f1+2,f
  2560     0B03  09B0               	comf	___fltol@f1+3,f
  2561     0B04  0AAD               	incf	___fltol@f1,f
  2562     0B05  1903               	skipnz
  2563     0B06  0AAE               	incf	___fltol@f1+1,f
  2564     0B07  1903               	skipnz
  2565     0B08  0AAF               	incf	___fltol@f1+2,f
  2566     0B09  1903               	skipnz
  2567     0B0A  0AB0               	incf	___fltol@f1+3,f
  2568     0B0B                     l381:
  2569     0B0B                     l371:
  2570     0B0B  0008               	return
  2571     0B0C                     __end_of___fltol:
  2572                           
  2573                           	psect	text8
  2574     09AD                     __ptext8:	
  2575 ;; *************** function ___flsub *****************
  2576 ;; Defined at:
  2577 ;;		line 242 in file "C:\Program Files\Microchip\xc8\v2.45\pic\sources\c99\common\sprcadd.c"
  2578 ;; Parameters:    Size  Location     Type
  2579 ;;  a               4   37[BANK0 ] long 
  2580 ;;  b               4   41[BANK0 ] long 
  2581 ;; Auto vars:     Size  Location     Type
  2582 ;;		None
  2583 ;; Return value:  Size  Location     Type
  2584 ;;                  4   37[BANK0 ] long 
  2585 ;; Registers used:
  2586 ;;		wreg, status,2, status,0, btemp+1, pclath, cstack
  2587 ;; Tracked objects:
  2588 ;;		On entry : 0/0
  2589 ;;		On exit  : 0/0
  2590 ;;		Unchanged: 0/0
  2591 ;; Data sizes:     COMMON   BANK0   BANK1   BANK3   BANK2
  2592 ;;      Params:         0       8       0       0       0
  2593 ;;      Locals:         0       0       0       0       0
  2594 ;;      Temps:          0       0       0       0       0
  2595 ;;      Totals:         0       8       0       0       0
  2596 ;;Total ram usage:        8 bytes
  2597 ;; Hardware stack levels used: 1
  2598 ;; Hardware stack levels required when called: 1
  2599 ;; This function calls:
  2600 ;;		___fladd
  2601 ;; This function is called by:
  2602 ;;		_keyscane
  2603 ;;		_LCD_output
  2604 ;; This function uses a non-reentrant model
  2605 ;;
  2606                           
  2607     09AD                     ___flsub:	
  2608                           ;psect for function ___flsub
  2609                           
  2610     09AD                     l1765:	
  2611                           ;incstack = 0
  2612                           ; Regs used in ___flsub: [wreg+status,2+status,0+btemp+1+pclath+cstack]
  2613                           
  2614     09AD  3080               	movlw	128
  2615     09AE  1283               	bcf	3,5	;RP0=0, select bank0
  2616     09AF  1303               	bcf	3,6	;RP1=0, select bank0
  2617     09B0  06C8               	xorwf	___flsub@a+3,f
  2618     09B1                     l1767:
  2619     09B1  084C               	movf	___flsub@b+3,w
  2620     09B2  00F3               	movwf	___fladd@b+3
  2621     09B3  084B               	movf	___flsub@b+2,w
  2622     09B4  00F2               	movwf	___fladd@b+2
  2623     09B5  084A               	movf	___flsub@b+1,w
  2624     09B6  00F1               	movwf	___fladd@b+1
  2625     09B7  0849               	movf	___flsub@b,w
  2626     09B8  00F0               	movwf	___fladd@b
  2627     09B9  0848               	movf	___flsub@a+3,w
  2628     09BA  00F7               	movwf	___fladd@a+3
  2629     09BB  0847               	movf	___flsub@a+2,w
  2630     09BC  00F6               	movwf	___fladd@a+2
  2631     09BD  0846               	movf	___flsub@a+1,w
  2632     09BE  00F5               	movwf	___fladd@a+1
  2633     09BF  0845               	movf	___flsub@a,w
  2634     09C0  00F4               	movwf	___fladd@a
  2635     09C1  120A  118A  2239  120A  158A  	fcall	___fladd
  2636     09C6  0873               	movf	?___fladd+3,w
  2637     09C7  1283               	bcf	3,5	;RP0=0, select bank0
  2638     09C8  1303               	bcf	3,6	;RP1=0, select bank0
  2639     09C9  00C8               	movwf	?___flsub+3
  2640     09CA  0872               	movf	?___fladd+2,w
  2641     09CB  00C7               	movwf	?___flsub+2
  2642     09CC  0871               	movf	?___fladd+1,w
  2643     09CD  00C6               	movwf	?___flsub+1
  2644     09CE  0870               	movf	?___fladd,w
  2645     09CF  00C5               	movwf	?___flsub
  2646     09D0                     l524:
  2647     09D0  0008               	return
  2648     09D1                     __end_of___flsub:
  2649                           
  2650                           	psect	text9
  2651     0239                     __ptext9:	
  2652 ;; *************** function ___fladd *****************
  2653 ;; Defined at:
  2654 ;;		line 10 in file "C:\Program Files\Microchip\xc8\v2.45\pic\sources\c99\common\sprcadd.c"
  2655 ;; Parameters:    Size  Location     Type
  2656 ;;  b               4    0[COMMON] long 
  2657 ;;  a               4    4[COMMON] long 
  2658 ;; Auto vars:     Size  Location     Type
  2659 ;;  grs             1   11[COMMON] unsigned char 
  2660 ;;  bexp            1   10[COMMON] unsigned char 
  2661 ;;  aexp            1    9[COMMON] unsigned char 
  2662 ;;  signs           1    8[COMMON] unsigned char 
  2663 ;; Return value:  Size  Location     Type
  2664 ;;                  4    0[COMMON] unsigned char 
  2665 ;; Registers used:
  2666 ;;		wreg, status,2, status,0, btemp+1
  2667 ;; Tracked objects:
  2668 ;;		On entry : 0/0
  2669 ;;		On exit  : 0/0
  2670 ;;		Unchanged: 0/0
  2671 ;; Data sizes:     COMMON   BANK0   BANK1   BANK3   BANK2
  2672 ;;      Params:         8       0       0       0       0
  2673 ;;      Locals:         4       0       0       0       0
  2674 ;;      Temps:          0       8       0       0       0
  2675 ;;      Totals:        12       8       0       0       0
  2676 ;;Total ram usage:       20 bytes
  2677 ;; Hardware stack levels used: 1
  2678 ;; This function calls:
  2679 ;;		Nothing
  2680 ;; This function is called by:
  2681 ;;		_keyscane
  2682 ;;		___flsub
  2683 ;; This function uses a non-reentrant model
  2684 ;;
  2685                           
  2686     0239                     ___fladd:	
  2687                           ;psect for function ___fladd
  2688                           
  2689     0239                     l1461:	
  2690                           ;incstack = 0
  2691                           ; Regs used in ___fladd: [wreg+status,2+status,0+btemp+1]
  2692                           
  2693     0239  0873               	movf	___fladd@b+3,w
  2694     023A  3980               	andlw	128
  2695     023B  00F8               	movwf	___fladd@signs
  2696     023C                     l1463:
  2697     023C  0873               	movf	___fladd@b+3,w
  2698     023D  1283               	bcf	3,5	;RP0=0, select bank0
  2699     023E  1303               	bcf	3,6	;RP1=0, select bank0
  2700     023F  00A0               	movwf	??___fladd
  2701     0240  0720               	addwf	??___fladd,w
  2702     0241  00FA               	movwf	___fladd@bexp
  2703     0242                     l1465:
  2704     0242  1FF2               	btfss	___fladd@b+2,7
  2705     0243  2A45               	goto	u1641
  2706     0244  2A46               	goto	u1640
  2707     0245                     u1641:
  2708     0245  2A47               	goto	l1469
  2709     0246                     u1640:
  2710     0246                     l1467:
  2711     0246  147A               	bsf	___fladd@bexp,0
  2712     0247                     l1469:
  2713     0247  087A               	movf	___fladd@bexp,w
  2714     0248  1903               	btfsc	3,2
  2715     0249  2A4B               	goto	u1651
  2716     024A  2A4C               	goto	u1650
  2717     024B                     u1651:
  2718     024B  2A5C               	goto	l1479
  2719     024C                     u1650:
  2720     024C                     l1471:
  2721     024C  0A7A               	incf	___fladd@bexp,w
  2722     024D  1D03               	btfss	3,2
  2723     024E  2A50               	goto	u1661
  2724     024F  2A51               	goto	u1660
  2725     0250                     u1661:
  2726     0250  2A59               	goto	l1475
  2727     0251                     u1660:
  2728     0251                     l1473:
  2729     0251  3000               	movlw	0
  2730     0252  00F3               	movwf	___fladd@b+3
  2731     0253  3000               	movlw	0
  2732     0254  00F2               	movwf	___fladd@b+2
  2733     0255  3000               	movlw	0
  2734     0256  00F1               	movwf	___fladd@b+1
  2735     0257  3000               	movlw	0
  2736     0258  00F0               	movwf	___fladd@b
  2737     0259                     l1475:
  2738     0259  17F2               	bsf	___fladd@b+2,7
  2739     025A                     l1477:
  2740     025A  01F3               	clrf	___fladd@b+3
  2741     025B  2A64               	goto	l1481
  2742     025C                     l1479:
  2743     025C  3000               	movlw	0
  2744     025D  00F3               	movwf	___fladd@b+3
  2745     025E  3000               	movlw	0
  2746     025F  00F2               	movwf	___fladd@b+2
  2747     0260  3000               	movlw	0
  2748     0261  00F1               	movwf	___fladd@b+1
  2749     0262  3000               	movlw	0
  2750     0263  00F0               	movwf	___fladd@b
  2751     0264                     l1481:
  2752     0264  0877               	movf	___fladd@a+3,w
  2753     0265  3980               	andlw	128
  2754     0266  00F9               	movwf	___fladd@aexp
  2755     0267                     l1483:
  2756     0267  0879               	movf	___fladd@aexp,w
  2757     0268  0678               	xorwf	___fladd@signs,w
  2758     0269  1903               	skipnz
  2759     026A  2A6C               	goto	u1671
  2760     026B  2A6D               	goto	u1670
  2761     026C                     u1671:
  2762     026C  2A6E               	goto	l1487
  2763     026D                     u1670:
  2764     026D                     l1485:
  2765     026D  1778               	bsf	___fladd@signs,6
  2766     026E                     l1487:
  2767     026E  0877               	movf	___fladd@a+3,w
  2768     026F  00A0               	movwf	??___fladd
  2769     0270  0720               	addwf	??___fladd,w
  2770     0271  00F9               	movwf	___fladd@aexp
  2771     0272                     l1489:
  2772     0272  1FF6               	btfss	___fladd@a+2,7
  2773     0273  2A75               	goto	u1681
  2774     0274  2A76               	goto	u1680
  2775     0275                     u1681:
  2776     0275  2A77               	goto	l1493
  2777     0276                     u1680:
  2778     0276                     l1491:
  2779     0276  1479               	bsf	___fladd@aexp,0
  2780     0277                     l1493:
  2781     0277  0879               	movf	___fladd@aexp,w
  2782     0278  1903               	btfsc	3,2
  2783     0279  2A7B               	goto	u1691
  2784     027A  2A7C               	goto	u1690
  2785     027B                     u1691:
  2786     027B  2A8C               	goto	l1503
  2787     027C                     u1690:
  2788     027C                     l1495:
  2789     027C  0A79               	incf	___fladd@aexp,w
  2790     027D  1D03               	btfss	3,2
  2791     027E  2A80               	goto	u1701
  2792     027F  2A81               	goto	u1700
  2793     0280                     u1701:
  2794     0280  2A89               	goto	l1499
  2795     0281                     u1700:
  2796     0281                     l1497:
  2797     0281  3000               	movlw	0
  2798     0282  00F7               	movwf	___fladd@a+3
  2799     0283  3000               	movlw	0
  2800     0284  00F6               	movwf	___fladd@a+2
  2801     0285  3000               	movlw	0
  2802     0286  00F5               	movwf	___fladd@a+1
  2803     0287  3000               	movlw	0
  2804     0288  00F4               	movwf	___fladd@a
  2805     0289                     l1499:
  2806     0289  17F6               	bsf	___fladd@a+2,7
  2807     028A                     l1501:
  2808     028A  01F7               	clrf	___fladd@a+3
  2809     028B  2A94               	goto	l478
  2810     028C                     l1503:
  2811     028C  3000               	movlw	0
  2812     028D  00F7               	movwf	___fladd@a+3
  2813     028E  3000               	movlw	0
  2814     028F  00F6               	movwf	___fladd@a+2
  2815     0290  3000               	movlw	0
  2816     0291  00F5               	movwf	___fladd@a+1
  2817     0292  3000               	movlw	0
  2818     0293  00F4               	movwf	___fladd@a
  2819     0294                     l478:
  2820     0294  087A               	movf	___fladd@bexp,w
  2821     0295  0279               	subwf	___fladd@aexp,w
  2822     0296  1803               	skipnc
  2823     0297  2A99               	goto	u1711
  2824     0298  2A9A               	goto	u1710
  2825     0299                     u1711:
  2826     0299  2AC0               	goto	l1539
  2827     029A                     u1710:
  2828     029A                     l1505:
  2829     029A  1F78               	btfss	___fladd@signs,6
  2830     029B  2A9D               	goto	u1721
  2831     029C  2A9E               	goto	u1720
  2832     029D                     u1721:
  2833     029D  2AA2               	goto	l1509
  2834     029E                     u1720:
  2835     029E                     l1507:
  2836     029E  3080               	movlw	128
  2837     029F  00FF               	movwf	btemp+1
  2838     02A0  087F               	movf	btemp+1,w
  2839     02A1  06F8               	xorwf	___fladd@signs,f
  2840     02A2                     l1509:
  2841     02A2  087A               	movf	___fladd@bexp,w
  2842     02A3  00FB               	movwf	___fladd@grs
  2843     02A4                     l1511:
  2844     02A4  0879               	movf	___fladd@aexp,w
  2845     02A5  00FA               	movwf	___fladd@bexp
  2846     02A6                     l1513:
  2847     02A6  087B               	movf	___fladd@grs,w
  2848     02A7  00F9               	movwf	___fladd@aexp
  2849     02A8                     l1515:
  2850     02A8  0870               	movf	___fladd@b,w
  2851     02A9  00FB               	movwf	___fladd@grs
  2852     02AA                     l1517:
  2853     02AA  0874               	movf	___fladd@a,w
  2854     02AB  00F0               	movwf	___fladd@b
  2855     02AC                     l1519:
  2856     02AC  087B               	movf	___fladd@grs,w
  2857     02AD  00F4               	movwf	___fladd@a
  2858     02AE                     l1521:
  2859     02AE  0871               	movf	___fladd@b+1,w
  2860     02AF  00FB               	movwf	___fladd@grs
  2861     02B0                     l1523:
  2862     02B0  0875               	movf	___fladd@a+1,w
  2863     02B1  00F1               	movwf	___fladd@b+1
  2864     02B2                     l1525:
  2865     02B2  087B               	movf	___fladd@grs,w
  2866     02B3  00F5               	movwf	___fladd@a+1
  2867     02B4                     l1527:
  2868     02B4  0872               	movf	___fladd@b+2,w
  2869     02B5  00FB               	movwf	___fladd@grs
  2870     02B6                     l1529:
  2871     02B6  0876               	movf	___fladd@a+2,w
  2872     02B7  00F2               	movwf	___fladd@b+2
  2873     02B8                     l1531:
  2874     02B8  087B               	movf	___fladd@grs,w
  2875     02B9  00F6               	movwf	___fladd@a+2
  2876     02BA                     l1533:
  2877     02BA  0873               	movf	___fladd@b+3,w
  2878     02BB  00FB               	movwf	___fladd@grs
  2879     02BC                     l1535:
  2880     02BC  0877               	movf	___fladd@a+3,w
  2881     02BD  00F3               	movwf	___fladd@b+3
  2882     02BE                     l1537:
  2883     02BE  087B               	movf	___fladd@grs,w
  2884     02BF  00F7               	movwf	___fladd@a+3
  2885     02C0                     l1539:
  2886     02C0  01FB               	clrf	___fladd@grs
  2887     02C1                     l1541:
  2888     02C1  0879               	movf	___fladd@aexp,w
  2889     02C2  00A0               	movwf	??___fladd
  2890     02C3  01A1               	clrf	??___fladd+1
  2891     02C4  0821               	movf	??___fladd+1,w
  2892     02C5  00A3               	movwf	??___fladd+3
  2893     02C6  087A               	movf	___fladd@bexp,w
  2894     02C7  0220               	subwf	??___fladd,w
  2895     02C8  00A2               	movwf	??___fladd+2
  2896     02C9  1C03               	skipc
  2897     02CA  03A3               	decf	??___fladd+3,f
  2898     02CB  0823               	movf	??___fladd+3,w
  2899     02CC  3A80               	xorlw	128
  2900     02CD  00FF               	movwf	btemp+1
  2901     02CE  3080               	movlw	128
  2902     02CF  027F               	subwf	btemp+1,w
  2903     02D0  1D03               	skipz
  2904     02D1  2AD4               	goto	u1735
  2905     02D2  301A               	movlw	26
  2906     02D3  0222               	subwf	??___fladd+2,w
  2907     02D4                     u1735:
  2908     02D4  1C03               	skipc
  2909     02D5  2AD7               	goto	u1731
  2910     02D6  2AD8               	goto	u1730
  2911     02D7                     u1731:
  2912     02D7  2B11               	goto	l1557
  2913     02D8                     u1730:
  2914     02D8                     l1543:
  2915     02D8  0873               	movf	___fladd@b+3,w
  2916     02D9  0472               	iorwf	___fladd@b+2,w
  2917     02DA  0471               	iorwf	___fladd@b+1,w
  2918     02DB  0470               	iorwf	___fladd@b,w
  2919     02DC  1D03               	skipz
  2920     02DD  2ADF               	goto	u1741
  2921     02DE  2AE1               	goto	u1740
  2922     02DF                     u1741:
  2923     02DF  3001               	movlw	1
  2924     02E0  2AE2               	goto	u1750
  2925     02E1                     u1740:
  2926     02E1  3000               	movlw	0
  2927     02E2                     u1750:
  2928     02E2  00FB               	movwf	___fladd@grs
  2929     02E3  3000               	movlw	0
  2930     02E4  00F3               	movwf	___fladd@b+3
  2931     02E5  3000               	movlw	0
  2932     02E6  00F2               	movwf	___fladd@b+2
  2933     02E7  3000               	movlw	0
  2934     02E8  00F1               	movwf	___fladd@b+1
  2935     02E9  3000               	movlw	0
  2936     02EA  00F0               	movwf	___fladd@b
  2937     02EB  0879               	movf	___fladd@aexp,w
  2938     02EC  00FA               	movwf	___fladd@bexp
  2939     02ED  2B17               	goto	l482
  2940     02EE                     l484:
  2941     02EE  1C7B               	btfss	___fladd@grs,0
  2942     02EF  2AF1               	goto	u1761
  2943     02F0  2AF2               	goto	u1760
  2944     02F1                     u1761:
  2945     02F1  2AFB               	goto	l1547
  2946     02F2                     u1760:
  2947     02F2                     l1545:
  2948     02F2  087B               	movf	___fladd@grs,w
  2949     02F3  1283               	bcf	3,5	;RP0=0, select bank0
  2950     02F4  1303               	bcf	3,6	;RP1=0, select bank0
  2951     02F5  00A0               	movwf	??___fladd
  2952     02F6  1003               	clrc
  2953     02F7  0C20               	rrf	??___fladd,w
  2954     02F8  3801               	iorlw	1
  2955     02F9  00FB               	movwf	___fladd@grs
  2956     02FA  2AFD               	goto	l1549
  2957     02FB                     l1547:
  2958     02FB  1003               	clrc
  2959     02FC  0CFB               	rrf	___fladd@grs,f
  2960     02FD                     l1549:
  2961     02FD  1C70               	btfss	___fladd@b,0
  2962     02FE  2B00               	goto	u1771
  2963     02FF  2B01               	goto	u1770
  2964     0300                     u1771:
  2965     0300  2B02               	goto	l1553
  2966     0301                     u1770:
  2967     0301                     l1551:
  2968     0301  17FB               	bsf	___fladd@grs,7
  2969     0302                     l1553:
  2970     0302  3001               	movlw	1
  2971     0303  1283               	bcf	3,5	;RP0=0, select bank0
  2972     0304  1303               	bcf	3,6	;RP1=0, select bank0
  2973     0305  00A0               	movwf	??___fladd
  2974     0306                     u1785:
  2975     0306  0D73               	rlf	___fladd@b+3,w
  2976     0307  0CF3               	rrf	___fladd@b+3,f
  2977     0308  0CF2               	rrf	___fladd@b+2,f
  2978     0309  0CF1               	rrf	___fladd@b+1,f
  2979     030A  0CF0               	rrf	___fladd@b,f
  2980     030B  0BA0               	decfsz	??___fladd& (0+127),f
  2981     030C  2B06               	goto	u1785
  2982     030D                     l1555:
  2983     030D  3001               	movlw	1
  2984     030E  00FF               	movwf	btemp+1
  2985     030F  087F               	movf	btemp+1,w
  2986     0310  07FA               	addwf	___fladd@bexp,f
  2987     0311                     l1557:
  2988     0311  0879               	movf	___fladd@aexp,w
  2989     0312  027A               	subwf	___fladd@bexp,w
  2990     0313  1C03               	skipc
  2991     0314  2B16               	goto	u1791
  2992     0315  2B17               	goto	u1790
  2993     0316                     u1791:
  2994     0316  2AEE               	goto	l484
  2995     0317                     u1790:
  2996     0317                     l482:
  2997     0317  1B78               	btfsc	___fladd@signs,6
  2998     0318  2B1A               	goto	u1801
  2999     0319  2B1B               	goto	u1800
  3000     031A                     u1801:
  3001     031A  2B68               	goto	l1583
  3002     031B                     u1800:
  3003     031B                     l1559:
  3004     031B  087A               	movf	___fladd@bexp,w
  3005     031C  1D03               	btfss	3,2
  3006     031D  2B1F               	goto	u1811
  3007     031E  2B20               	goto	u1810
  3008     031F                     u1811:
  3009     031F  2B29               	goto	l1565
  3010     0320                     u1810:
  3011     0320                     l1561:
  3012     0320  3000               	movlw	0
  3013     0321  00F3               	movwf	?___fladd+3
  3014     0322  3000               	movlw	0
  3015     0323  00F2               	movwf	?___fladd+2
  3016     0324  3000               	movlw	0
  3017     0325  00F1               	movwf	?___fladd+1
  3018     0326  3000               	movlw	0
  3019     0327  00F0               	movwf	?___fladd
  3020     0328  2C9C               	goto	l491
  3021     0329                     l1565:
  3022     0329  0874               	movf	___fladd@a,w
  3023     032A  07F0               	addwf	___fladd@b,f
  3024     032B  0875               	movf	___fladd@a+1,w
  3025     032C  1103               	clrz
  3026     032D  1803               	skipnc
  3027     032E  3E01               	addlw	1
  3028     032F  1903               	skipnz
  3029     0330  2B32               	goto	u1821
  3030     0331  07F1               	addwf	___fladd@b+1,f
  3031     0332                     u1821:
  3032     0332  0876               	movf	___fladd@a+2,w
  3033     0333  1103               	clrz
  3034     0334  1803               	skipnc
  3035     0335  3E01               	addlw	1
  3036     0336  1903               	skipnz
  3037     0337  2B39               	goto	u1822
  3038     0338  07F2               	addwf	___fladd@b+2,f
  3039     0339                     u1822:
  3040     0339  0877               	movf	___fladd@a+3,w
  3041     033A  1103               	clrz
  3042     033B  1803               	skipnc
  3043     033C  3E01               	addlw	1
  3044     033D  1903               	skipnz
  3045     033E  2B40               	goto	u1823
  3046     033F  07F3               	addwf	___fladd@b+3,f
  3047     0340                     u1823:
  3048     0340                     l1567:
  3049     0340  1C73               	btfss	___fladd@b+3,0
  3050     0341  2B43               	goto	u1831
  3051     0342  2B44               	goto	u1830
  3052     0343                     u1831:
  3053     0343  2C20               	goto	l1619
  3054     0344                     u1830:
  3055     0344                     l1569:
  3056     0344  1C7B               	btfss	___fladd@grs,0
  3057     0345  2B47               	goto	u1841
  3058     0346  2B48               	goto	u1840
  3059     0347                     u1841:
  3060     0347  2B51               	goto	l1573
  3061     0348                     u1840:
  3062     0348                     l1571:
  3063     0348  087B               	movf	___fladd@grs,w
  3064     0349  1283               	bcf	3,5	;RP0=0, select bank0
  3065     034A  1303               	bcf	3,6	;RP1=0, select bank0
  3066     034B  00A0               	movwf	??___fladd
  3067     034C  1003               	clrc
  3068     034D  0C20               	rrf	??___fladd,w
  3069     034E  3801               	iorlw	1
  3070     034F  00FB               	movwf	___fladd@grs
  3071     0350  2B53               	goto	l1575
  3072     0351                     l1573:
  3073     0351  1003               	clrc
  3074     0352  0CFB               	rrf	___fladd@grs,f
  3075     0353                     l1575:
  3076     0353  1C70               	btfss	___fladd@b,0
  3077     0354  2B56               	goto	u1851
  3078     0355  2B57               	goto	u1850
  3079     0356                     u1851:
  3080     0356  2B58               	goto	l1579
  3081     0357                     u1850:
  3082     0357                     l1577:
  3083     0357  17FB               	bsf	___fladd@grs,7
  3084     0358                     l1579:
  3085     0358  3001               	movlw	1
  3086     0359  1283               	bcf	3,5	;RP0=0, select bank0
  3087     035A  1303               	bcf	3,6	;RP1=0, select bank0
  3088     035B  00A0               	movwf	??___fladd
  3089     035C                     u1865:
  3090     035C  0D73               	rlf	___fladd@b+3,w
  3091     035D  0CF3               	rrf	___fladd@b+3,f
  3092     035E  0CF2               	rrf	___fladd@b+2,f
  3093     035F  0CF1               	rrf	___fladd@b+1,f
  3094     0360  0CF0               	rrf	___fladd@b,f
  3095     0361  0BA0               	decfsz	??___fladd& (0+127),f
  3096     0362  2B5C               	goto	u1865
  3097     0363                     l1581:
  3098     0363  3001               	movlw	1
  3099     0364  00FF               	movwf	btemp+1
  3100     0365  087F               	movf	btemp+1,w
  3101     0366  07FA               	addwf	___fladd@bexp,f
  3102     0367  2C20               	goto	l1619
  3103     0368                     l1583:
  3104     0368  0873               	movf	___fladd@b+3,w
  3105     0369  3A80               	xorlw	128
  3106     036A  00FF               	movwf	btemp+1
  3107     036B  0877               	movf	___fladd@a+3,w
  3108     036C  3A80               	xorlw	128
  3109     036D  027F               	subwf	btemp+1,w
  3110     036E  1D03               	skipz
  3111     036F  2B7A               	goto	u1873
  3112     0370  0876               	movf	___fladd@a+2,w
  3113     0371  0272               	subwf	___fladd@b+2,w
  3114     0372  1D03               	skipz
  3115     0373  2B7A               	goto	u1873
  3116     0374  0875               	movf	___fladd@a+1,w
  3117     0375  0271               	subwf	___fladd@b+1,w
  3118     0376  1D03               	skipz
  3119     0377  2B7A               	goto	u1873
  3120     0378  0874               	movf	___fladd@a,w
  3121     0379  0270               	subwf	___fladd@b,w
  3122     037A                     u1873:
  3123     037A  1803               	skipnc
  3124     037B  2B7D               	goto	u1871
  3125     037C  2B7E               	goto	u1870
  3126     037D                     u1871:
  3127     037D  2BD8               	goto	l1595
  3128     037E                     u1870:
  3129     037E                     l1585:
  3130     037E  30FF               	movlw	255
  3131     037F  1283               	bcf	3,5	;RP0=0, select bank0
  3132     0380  1303               	bcf	3,6	;RP1=0, select bank0
  3133     0381  00A0               	movwf	??___fladd
  3134     0382  30FF               	movlw	255
  3135     0383  00A1               	movwf	??___fladd+1
  3136     0384  30FF               	movlw	255
  3137     0385  00A2               	movwf	??___fladd+2
  3138     0386  30FF               	movlw	255
  3139     0387  00A3               	movwf	??___fladd+3
  3140     0388  0874               	movf	___fladd@a,w
  3141     0389  00A4               	movwf	??___fladd+4
  3142     038A  0875               	movf	___fladd@a+1,w
  3143     038B  00A5               	movwf	??___fladd+5
  3144     038C  0876               	movf	___fladd@a+2,w
  3145     038D  00A6               	movwf	??___fladd+6
  3146     038E  0877               	movf	___fladd@a+3,w
  3147     038F  00A7               	movwf	??___fladd+7
  3148     0390  0870               	movf	___fladd@b,w
  3149     0391  02A4               	subwf	??___fladd+4,f
  3150     0392  0871               	movf	___fladd@b+1,w
  3151     0393  1C03               	skipc
  3152     0394  0F71               	incfsz	___fladd@b+1,w
  3153     0395  2B97               	goto	u1881
  3154     0396  2B98               	goto	u1882
  3155     0397                     u1881:
  3156     0397  02A5               	subwf	??___fladd+5,f
  3157     0398                     u1882:
  3158     0398  0872               	movf	___fladd@b+2,w
  3159     0399  1C03               	skipc
  3160     039A  0F72               	incfsz	___fladd@b+2,w
  3161     039B  2B9D               	goto	u1883
  3162     039C  2B9E               	goto	u1884
  3163     039D                     u1883:
  3164     039D  02A6               	subwf	??___fladd+6,f
  3165     039E                     u1884:
  3166     039E  0873               	movf	___fladd@b+3,w
  3167     039F  1C03               	skipc
  3168     03A0  0F73               	incfsz	___fladd@b+3,w
  3169     03A1  2BA3               	goto	u1885
  3170     03A2  2BA4               	goto	u1886
  3171     03A3                     u1885:
  3172     03A3  02A7               	subwf	??___fladd+7,f
  3173     03A4                     u1886:
  3174     03A4  0824               	movf	??___fladd+4,w
  3175     03A5  07A0               	addwf	??___fladd,f
  3176     03A6  0825               	movf	??___fladd+5,w
  3177     03A7  1803               	skipnc
  3178     03A8  0F25               	incfsz	??___fladd+5,w
  3179     03A9  2BAB               	goto	u1890
  3180     03AA  2BAC               	goto	u1891
  3181     03AB                     u1890:
  3182     03AB  07A1               	addwf	??___fladd+1,f
  3183     03AC                     u1891:
  3184     03AC  0826               	movf	??___fladd+6,w
  3185     03AD  1803               	skipnc
  3186     03AE  0F26               	incfsz	??___fladd+6,w
  3187     03AF  2BB1               	goto	u1892
  3188     03B0  2BB2               	goto	u1893
  3189     03B1                     u1892:
  3190     03B1  07A2               	addwf	??___fladd+2,f
  3191     03B2                     u1893:
  3192     03B2  0827               	movf	??___fladd+7,w
  3193     03B3  1803               	skipnc
  3194     03B4  0A27               	incf	??___fladd+7,w
  3195     03B5  07A3               	addwf	??___fladd+3,f
  3196     03B6  0823               	movf	??___fladd+3,w
  3197     03B7  00F3               	movwf	___fladd@b+3
  3198     03B8  0822               	movf	??___fladd+2,w
  3199     03B9  00F2               	movwf	___fladd@b+2
  3200     03BA  0821               	movf	??___fladd+1,w
  3201     03BB  00F1               	movwf	___fladd@b+1
  3202     03BC  0820               	movf	??___fladd,w
  3203     03BD  00F0               	movwf	___fladd@b
  3204     03BE                     l1587:
  3205     03BE  3080               	movlw	128
  3206     03BF  00FF               	movwf	btemp+1
  3207     03C0  087F               	movf	btemp+1,w
  3208     03C1  06F8               	xorwf	___fladd@signs,f
  3209     03C2                     l1589:
  3210     03C2  09FB               	comf	___fladd@grs,f
  3211     03C3  0AFB               	incf	___fladd@grs,f
  3212     03C4                     l1591:
  3213     03C4  087B               	movf	___fladd@grs,w
  3214     03C5  1D03               	btfss	3,2
  3215     03C6  2BC8               	goto	u1901
  3216     03C7  2BC9               	goto	u1900
  3217     03C8                     u1901:
  3218     03C8  2BE6               	goto	l499
  3219     03C9                     u1900:
  3220     03C9                     l1593:
  3221     03C9  3001               	movlw	1
  3222     03CA  07F0               	addwf	___fladd@b,f
  3223     03CB  3000               	movlw	0
  3224     03CC  1803               	skipnc
  3225     03CD  3001               	movlw	1
  3226     03CE  07F1               	addwf	___fladd@b+1,f
  3227     03CF  3000               	movlw	0
  3228     03D0  1803               	skipnc
  3229     03D1  3001               	movlw	1
  3230     03D2  07F2               	addwf	___fladd@b+2,f
  3231     03D3  3000               	movlw	0
  3232     03D4  1803               	skipnc
  3233     03D5  3001               	movlw	1
  3234     03D6  07F3               	addwf	___fladd@b+3,f
  3235     03D7  2BE6               	goto	l499
  3236     03D8                     l1595:
  3237     03D8  0874               	movf	___fladd@a,w
  3238     03D9  02F0               	subwf	___fladd@b,f
  3239     03DA  0875               	movf	___fladd@a+1,w
  3240     03DB  1C03               	skipc
  3241     03DC  0F75               	incfsz	___fladd@a+1,w
  3242     03DD  02F1               	subwf	___fladd@b+1,f
  3243     03DE  0876               	movf	___fladd@a+2,w
  3244     03DF  1C03               	skipc
  3245     03E0  0F76               	incfsz	___fladd@a+2,w
  3246     03E1  02F2               	subwf	___fladd@b+2,f
  3247     03E2  0877               	movf	___fladd@a+3,w
  3248     03E3  1C03               	skipc
  3249     03E4  0F77               	incfsz	___fladd@a+3,w
  3250     03E5  02F3               	subwf	___fladd@b+3,f
  3251     03E6                     l499:
  3252     03E6  0873               	movf	___fladd@b+3,w
  3253     03E7  0472               	iorwf	___fladd@b+2,w
  3254     03E8  0471               	iorwf	___fladd@b+1,w
  3255     03E9  0470               	iorwf	___fladd@b,w
  3256     03EA  1D03               	skipz
  3257     03EB  2BED               	goto	u1911
  3258     03EC  2BEE               	goto	u1910
  3259     03ED                     u1911:
  3260     03ED  2C1C               	goto	l1617
  3261     03EE                     u1910:
  3262     03EE                     l1597:
  3263     03EE  087B               	movf	___fladd@grs,w
  3264     03EF  1D03               	btfss	3,2
  3265     03F0  2BF2               	goto	u1921
  3266     03F1  2BF3               	goto	u1920
  3267     03F2                     u1921:
  3268     03F2  2C1C               	goto	l1617
  3269     03F3                     u1920:
  3270     03F3                     l1599:
  3271     03F3  3000               	movlw	0
  3272     03F4  00F3               	movwf	?___fladd+3
  3273     03F5  3000               	movlw	0
  3274     03F6  00F2               	movwf	?___fladd+2
  3275     03F7  3000               	movlw	0
  3276     03F8  00F1               	movwf	?___fladd+1
  3277     03F9  3000               	movlw	0
  3278     03FA  00F0               	movwf	?___fladd
  3279     03FB  2C9C               	goto	l491
  3280     03FC                     l1603:
  3281     03FC  3001               	movlw	1
  3282     03FD  1283               	bcf	3,5	;RP0=0, select bank0
  3283     03FE  1303               	bcf	3,6	;RP1=0, select bank0
  3284     03FF  00A0               	movwf	??___fladd
  3285     0400                     u1935:
  3286     0400  1003               	clrc
  3287     0401  0DF0               	rlf	___fladd@b,f
  3288     0402  0DF1               	rlf	___fladd@b+1,f
  3289     0403  0DF2               	rlf	___fladd@b+2,f
  3290     0404  0DF3               	rlf	___fladd@b+3,f
  3291     0405  0BA0               	decfsz	??___fladd,f
  3292     0406  2C00               	goto	u1935
  3293     0407                     l1605:
  3294     0407  1FFB               	btfss	___fladd@grs,7
  3295     0408  2C0A               	goto	u1941
  3296     0409  2C0B               	goto	u1940
  3297     040A                     u1941:
  3298     040A  2C0C               	goto	l503
  3299     040B                     u1940:
  3300     040B                     l1607:
  3301     040B  1470               	bsf	___fladd@b,0
  3302     040C                     l503:
  3303     040C  1C7B               	btfss	___fladd@grs,0
  3304     040D  2C0F               	goto	u1951
  3305     040E  2C10               	goto	u1950
  3306     040F                     u1951:
  3307     040F  2C13               	goto	l1611
  3308     0410                     u1950:
  3309     0410                     l1609:
  3310     0410  1403               	setc
  3311     0411  0DFB               	rlf	___fladd@grs,f
  3312     0412  2C15               	goto	l1613
  3313     0413                     l1611:
  3314     0413  1003               	clrc
  3315     0414  0DFB               	rlf	___fladd@grs,f
  3316     0415                     l1613:
  3317     0415  087A               	movf	___fladd@bexp,w
  3318     0416  1903               	btfsc	3,2
  3319     0417  2C19               	goto	u1961
  3320     0418  2C1A               	goto	u1960
  3321     0419                     u1961:
  3322     0419  2C1C               	goto	l1617
  3323     041A                     u1960:
  3324     041A                     l1615:
  3325     041A  3001               	movlw	1
  3326     041B  02FA               	subwf	___fladd@bexp,f
  3327     041C                     l1617:
  3328     041C  1FF2               	btfss	___fladd@b+2,7
  3329     041D  2C1F               	goto	u1971
  3330     041E  2C20               	goto	u1970
  3331     041F                     u1971:
  3332     041F  2BFC               	goto	l1603
  3333     0420                     u1970:
  3334     0420                     l1619:
  3335     0420  01F9               	clrf	___fladd@aexp
  3336     0421                     l1621:
  3337     0421  1FFB               	btfss	___fladd@grs,7
  3338     0422  2C24               	goto	u1981
  3339     0423  2C25               	goto	u1980
  3340     0424                     u1981:
  3341     0424  2C33               	goto	l1629
  3342     0425                     u1980:
  3343     0425                     l1623:
  3344     0425  087B               	movf	___fladd@grs,w
  3345     0426  397F               	andlw	127
  3346     0427  1903               	btfsc	3,2
  3347     0428  2C2A               	goto	u1991
  3348     0429  2C2B               	goto	u1990
  3349     042A                     u1991:
  3350     042A  2C2E               	goto	l509
  3351     042B                     u1990:
  3352     042B                     l1625:
  3353     042B  01F9               	clrf	___fladd@aexp
  3354     042C  0AF9               	incf	___fladd@aexp,f
  3355     042D  2C33               	goto	l1629
  3356     042E                     l509:
  3357     042E  1C70               	btfss	___fladd@b,0
  3358     042F  2C31               	goto	u2001
  3359     0430  2C32               	goto	u2000
  3360     0431                     u2001:
  3361     0431  2C33               	goto	l1629
  3362     0432                     u2000:
  3363     0432  2C2B               	goto	l1625
  3364     0433                     l1629:
  3365     0433  0879               	movf	___fladd@aexp,w
  3366     0434  1903               	btfsc	3,2
  3367     0435  2C37               	goto	u2011
  3368     0436  2C38               	goto	u2010
  3369     0437                     u2011:
  3370     0437  2C6E               	goto	l1639
  3371     0438                     u2010:
  3372     0438                     l1631:
  3373     0438  3001               	movlw	1
  3374     0439  07F0               	addwf	___fladd@b,f
  3375     043A  3000               	movlw	0
  3376     043B  1803               	skipnc
  3377     043C  3001               	movlw	1
  3378     043D  07F1               	addwf	___fladd@b+1,f
  3379     043E  3000               	movlw	0
  3380     043F  1803               	skipnc
  3381     0440  3001               	movlw	1
  3382     0441  07F2               	addwf	___fladd@b+2,f
  3383     0442  3000               	movlw	0
  3384     0443  1803               	skipnc
  3385     0444  3001               	movlw	1
  3386     0445  07F3               	addwf	___fladd@b+3,f
  3387     0446                     l1633:
  3388     0446  1C73               	btfss	___fladd@b+3,0
  3389     0447  2C49               	goto	u2021
  3390     0448  2C4A               	goto	u2020
  3391     0449                     u2021:
  3392     0449  2C6E               	goto	l1639
  3393     044A                     u2020:
  3394     044A                     l1635:
  3395     044A  0870               	movf	___fladd@b,w
  3396     044B  1283               	bcf	3,5	;RP0=0, select bank0
  3397     044C  1303               	bcf	3,6	;RP1=0, select bank0
  3398     044D  00A0               	movwf	??___fladd
  3399     044E  0871               	movf	___fladd@b+1,w
  3400     044F  00A1               	movwf	??___fladd+1
  3401     0450  0872               	movf	___fladd@b+2,w
  3402     0451  00A2               	movwf	??___fladd+2
  3403     0452  0873               	movf	___fladd@b+3,w
  3404     0453  00A3               	movwf	??___fladd+3
  3405     0454  3001               	movlw	1
  3406     0455  00A4               	movwf	??___fladd+4
  3407     0456                     u2035:
  3408     0456  0D23               	rlf	??___fladd+3,w
  3409     0457  0CA3               	rrf	??___fladd+3,f
  3410     0458  0CA2               	rrf	??___fladd+2,f
  3411     0459  0CA1               	rrf	??___fladd+1,f
  3412     045A  0CA0               	rrf	??___fladd,f
  3413     045B                     u2030:
  3414     045B  0BA4               	decfsz	??___fladd+4,f
  3415     045C  2C56               	goto	u2035
  3416     045D  0823               	movf	??___fladd+3,w
  3417     045E  00F3               	movwf	___fladd@b+3
  3418     045F  0822               	movf	??___fladd+2,w
  3419     0460  00F2               	movwf	___fladd@b+2
  3420     0461  0821               	movf	??___fladd+1,w
  3421     0462  00F1               	movwf	___fladd@b+1
  3422     0463  0820               	movf	??___fladd,w
  3423     0464  00F0               	movwf	___fladd@b
  3424     0465  0A7A               	incf	___fladd@bexp,w
  3425     0466  1903               	btfsc	3,2
  3426     0467  2C69               	goto	u2041
  3427     0468  2C6A               	goto	u2040
  3428     0469                     u2041:
  3429     0469  2C6E               	goto	l1639
  3430     046A                     u2040:
  3431     046A                     l1637:
  3432     046A  3001               	movlw	1
  3433     046B  00FF               	movwf	btemp+1
  3434     046C  087F               	movf	btemp+1,w
  3435     046D  07FA               	addwf	___fladd@bexp,f
  3436     046E                     l1639:
  3437     046E  0A7A               	incf	___fladd@bexp,w
  3438     046F  1903               	btfsc	3,2
  3439     0470  2C72               	goto	u2051
  3440     0471  2C73               	goto	u2050
  3441     0472                     u2051:
  3442     0472  2C78               	goto	l1643
  3443     0473                     u2050:
  3444     0473                     l1641:
  3445     0473  087A               	movf	___fladd@bexp,w
  3446     0474  1D03               	btfss	3,2
  3447     0475  2C77               	goto	u2061
  3448     0476  2C78               	goto	u2060
  3449     0477                     u2061:
  3450     0477  2C86               	goto	l1649
  3451     0478                     u2060:
  3452     0478                     l1643:
  3453     0478  3000               	movlw	0
  3454     0479  00F3               	movwf	___fladd@b+3
  3455     047A  3000               	movlw	0
  3456     047B  00F2               	movwf	___fladd@b+2
  3457     047C  3000               	movlw	0
  3458     047D  00F1               	movwf	___fladd@b+1
  3459     047E  3000               	movlw	0
  3460     047F  00F0               	movwf	___fladd@b
  3461     0480                     l1645:
  3462     0480  087A               	movf	___fladd@bexp,w
  3463     0481  1D03               	btfss	3,2
  3464     0482  2C84               	goto	u2071
  3465     0483  2C85               	goto	u2070
  3466     0484                     u2071:
  3467     0484  2C86               	goto	l1649
  3468     0485                     u2070:
  3469     0485                     l1647:
  3470     0485  01F8               	clrf	___fladd@signs
  3471     0486                     l1649:
  3472     0486  1C7A               	btfss	___fladd@bexp,0
  3473     0487  2C89               	goto	u2081
  3474     0488  2C8A               	goto	u2080
  3475     0489                     u2081:
  3476     0489  2C8C               	goto	l1653
  3477     048A                     u2080:
  3478     048A                     l1651:
  3479     048A  17F2               	bsf	___fladd@b+2,7
  3480     048B  2C90               	goto	l1655
  3481     048C                     l1653:
  3482     048C  307F               	movlw	127
  3483     048D  00FF               	movwf	btemp+1
  3484     048E  087F               	movf	btemp+1,w
  3485     048F  05F2               	andwf	___fladd@b+2,f
  3486     0490                     l1655:
  3487     0490  087A               	movf	___fladd@bexp,w
  3488     0491  1283               	bcf	3,5	;RP0=0, select bank0
  3489     0492  1303               	bcf	3,6	;RP1=0, select bank0
  3490     0493  00A0               	movwf	??___fladd
  3491     0494  1003               	clrc
  3492     0495  0C20               	rrf	??___fladd,w
  3493     0496  00F3               	movwf	___fladd@b+3
  3494     0497                     l1657:
  3495     0497  1FF8               	btfss	___fladd@signs,7
  3496     0498  2C9A               	goto	u2091
  3497     0499  2C9B               	goto	u2090
  3498     049A                     u2091:
  3499     049A  2C9C               	goto	l521
  3500     049B                     u2090:
  3501     049B                     l1659:
  3502     049B  17F3               	bsf	___fladd@b+3,7
  3503     049C                     l521:
  3504     049C                     l491:
  3505     049C  0008               	return
  3506     049D                     __end_of___fladd:
  3507                           
  3508                           	psect	text10
  3509     049D                     __ptext10:	
  3510 ;; *************** function ___flmul *****************
  3511 ;; Defined at:
  3512 ;;		line 8 in file "C:\Program Files\Microchip\xc8\v2.45\pic\sources\c99\common\sprcmul.c"
  3513 ;; Parameters:    Size  Location     Type
  3514 ;;  b               4   45[BANK0 ] unsigned char 
  3515 ;;  a               4   49[BANK0 ] unsigned char 
  3516 ;; Auto vars:     Size  Location     Type
  3517 ;;  prod            4   65[BANK0 ] struct .
  3518 ;;  grs             4   59[BANK0 ] unsigned long 
  3519 ;;  temp            2   69[BANK0 ] struct .
  3520 ;;  bexp            1   64[BANK0 ] unsigned char 
  3521 ;;  aexp            1   63[BANK0 ] unsigned char 
  3522 ;;  sign            1   58[BANK0 ] unsigned char 
  3523 ;; Return value:  Size  Location     Type
  3524 ;;                  4   45[BANK0 ] unsigned char 
  3525 ;; Registers used:
  3526 ;;		wreg, status,2, status,0, btemp+1, pclath, cstack
  3527 ;; Tracked objects:
  3528 ;;		On entry : 0/0
  3529 ;;		On exit  : 0/0
  3530 ;;		Unchanged: 0/0
  3531 ;; Data sizes:     COMMON   BANK0   BANK1   BANK3   BANK2
  3532 ;;      Params:         0       8       0       0       0
  3533 ;;      Locals:         0      13       0       0       0
  3534 ;;      Temps:          0       5       0       0       0
  3535 ;;      Totals:         0      26       0       0       0
  3536 ;;Total ram usage:       26 bytes
  3537 ;; Hardware stack levels used: 1
  3538 ;; Hardware stack levels required when called: 1
  3539 ;; This function calls:
  3540 ;;		__Umul8_16
  3541 ;; This function is called by:
  3542 ;;		_LCD_output
  3543 ;; This function uses a non-reentrant model
  3544 ;;
  3545                           
  3546     049D                     ___flmul:	
  3547                           ;psect for function ___flmul
  3548                           
  3549     049D                     l1917:	
  3550                           ;incstack = 0
  3551                           ; Regs used in ___flmul: [wreg+status,2+status,0+btemp+1+pclath+cstack]
  3552                           
  3553     049D  1283               	bcf	3,5	;RP0=0, select bank0
  3554     049E  1303               	bcf	3,6	;RP1=0, select bank0
  3555     049F  0850               	movf	___flmul@b+3,w
  3556     04A0  3980               	andlw	128
  3557     04A1  00DA               	movwf	___flmul@sign
  3558     04A2                     l1919:
  3559     04A2  0850               	movf	___flmul@b+3,w
  3560     04A3  00D5               	movwf	??___flmul
  3561     04A4  0755               	addwf	??___flmul,w
  3562     04A5  00E0               	movwf	___flmul@bexp
  3563     04A6                     l1921:
  3564     04A6  1FCF               	btfss	___flmul@b+2,7
  3565     04A7  2CA9               	goto	u2641
  3566     04A8  2CAA               	goto	u2640
  3567     04A9                     u2641:
  3568     04A9  2CAB               	goto	l1925
  3569     04AA                     u2640:
  3570     04AA                     l1923:
  3571     04AA  1460               	bsf	___flmul@bexp,0
  3572     04AB                     l1925:
  3573     04AB  0860               	movf	___flmul@bexp,w
  3574     04AC  1903               	btfsc	3,2
  3575     04AD  2CAF               	goto	u2651
  3576     04AE  2CB0               	goto	u2650
  3577     04AF                     u2651:
  3578     04AF  2CBF               	goto	l1933
  3579     04B0                     u2650:
  3580     04B0                     l1927:
  3581     04B0  0A60               	incf	___flmul@bexp,w
  3582     04B1  1D03               	btfss	3,2
  3583     04B2  2CB4               	goto	u2661
  3584     04B3  2CB5               	goto	u2660
  3585     04B4                     u2661:
  3586     04B4  2CBD               	goto	l1931
  3587     04B5                     u2660:
  3588     04B5                     l1929:
  3589     04B5  3000               	movlw	0
  3590     04B6  00D0               	movwf	___flmul@b+3
  3591     04B7  3000               	movlw	0
  3592     04B8  00CF               	movwf	___flmul@b+2
  3593     04B9  3000               	movlw	0
  3594     04BA  00CE               	movwf	___flmul@b+1
  3595     04BB  3000               	movlw	0
  3596     04BC  00CD               	movwf	___flmul@b
  3597     04BD                     l1931:
  3598     04BD  17CF               	bsf	___flmul@b+2,7
  3599     04BE  2CC7               	goto	l1935
  3600     04BF                     l1933:
  3601     04BF  3000               	movlw	0
  3602     04C0  00D0               	movwf	___flmul@b+3
  3603     04C1  3000               	movlw	0
  3604     04C2  00CF               	movwf	___flmul@b+2
  3605     04C3  3000               	movlw	0
  3606     04C4  00CE               	movwf	___flmul@b+1
  3607     04C5  3000               	movlw	0
  3608     04C6  00CD               	movwf	___flmul@b
  3609     04C7                     l1935:
  3610     04C7  0854               	movf	___flmul@a+3,w
  3611     04C8  3980               	andlw	128
  3612     04C9  00FF               	movwf	btemp+1
  3613     04CA  087F               	movf	btemp+1,w
  3614     04CB  06DA               	xorwf	___flmul@sign,f
  3615     04CC                     l1937:
  3616     04CC  0854               	movf	___flmul@a+3,w
  3617     04CD  00D5               	movwf	??___flmul
  3618     04CE  0755               	addwf	??___flmul,w
  3619     04CF  00DF               	movwf	___flmul@aexp
  3620     04D0                     l1939:
  3621     04D0  1FD3               	btfss	___flmul@a+2,7
  3622     04D1  2CD3               	goto	u2671
  3623     04D2  2CD4               	goto	u2670
  3624     04D3                     u2671:
  3625     04D3  2CD5               	goto	l1943
  3626     04D4                     u2670:
  3627     04D4                     l1941:
  3628     04D4  145F               	bsf	___flmul@aexp,0
  3629     04D5                     l1943:
  3630     04D5  085F               	movf	___flmul@aexp,w
  3631     04D6  1903               	btfsc	3,2
  3632     04D7  2CD9               	goto	u2681
  3633     04D8  2CDA               	goto	u2680
  3634     04D9                     u2681:
  3635     04D9  2CE9               	goto	l1951
  3636     04DA                     u2680:
  3637     04DA                     l1945:
  3638     04DA  0A5F               	incf	___flmul@aexp,w
  3639     04DB  1D03               	btfss	3,2
  3640     04DC  2CDE               	goto	u2691
  3641     04DD  2CDF               	goto	u2690
  3642     04DE                     u2691:
  3643     04DE  2CE7               	goto	l1949
  3644     04DF                     u2690:
  3645     04DF                     l1947:
  3646     04DF  3000               	movlw	0
  3647     04E0  00D4               	movwf	___flmul@a+3
  3648     04E1  3000               	movlw	0
  3649     04E2  00D3               	movwf	___flmul@a+2
  3650     04E3  3000               	movlw	0
  3651     04E4  00D2               	movwf	___flmul@a+1
  3652     04E5  3000               	movlw	0
  3653     04E6  00D1               	movwf	___flmul@a
  3654     04E7                     l1949:
  3655     04E7  17D3               	bsf	___flmul@a+2,7
  3656     04E8  2CF1               	goto	l1953
  3657     04E9                     l1951:
  3658     04E9  3000               	movlw	0
  3659     04EA  00D4               	movwf	___flmul@a+3
  3660     04EB  3000               	movlw	0
  3661     04EC  00D3               	movwf	___flmul@a+2
  3662     04ED  3000               	movlw	0
  3663     04EE  00D2               	movwf	___flmul@a+1
  3664     04EF  3000               	movlw	0
  3665     04F0  00D1               	movwf	___flmul@a
  3666     04F1                     l1953:
  3667     04F1  085F               	movf	___flmul@aexp,w
  3668     04F2  1903               	btfsc	3,2
  3669     04F3  2CF5               	goto	u2701
  3670     04F4  2CF6               	goto	u2700
  3671     04F5                     u2701:
  3672     04F5  2CFB               	goto	l1957
  3673     04F6                     u2700:
  3674     04F6                     l1955:
  3675     04F6  0860               	movf	___flmul@bexp,w
  3676     04F7  1D03               	btfss	3,2
  3677     04F8  2CFA               	goto	u2711
  3678     04F9  2CFB               	goto	u2710
  3679     04FA                     u2711:
  3680     04FA  2D04               	goto	l1961
  3681     04FB                     u2710:
  3682     04FB                     l1957:
  3683     04FB  3000               	movlw	0
  3684     04FC  00D0               	movwf	?___flmul+3
  3685     04FD  3000               	movlw	0
  3686     04FE  00CF               	movwf	?___flmul+2
  3687     04FF  3000               	movlw	0
  3688     0500  00CE               	movwf	?___flmul+1
  3689     0501  3000               	movlw	0
  3690     0502  00CD               	movwf	?___flmul
  3691     0503  2FE1               	goto	l574
  3692     0504                     l1961:
  3693     0504  084D               	movf	___flmul@b,w
  3694     0505  00F0               	movwf	__Umul8_16@multiplicand
  3695     0506  0853               	movf	___flmul@a+2,w
  3696     0507  120A  158A  21F6  120A  118A  	fcall	__Umul8_16
  3697     050C  0871               	movf	?__Umul8_16+1,w
  3698     050D  1283               	bcf	3,5	;RP0=0, select bank0
  3699     050E  1303               	bcf	3,6	;RP1=0, select bank0
  3700     050F  00E6               	movwf	___flmul@temp+1
  3701     0510  0870               	movf	?__Umul8_16,w
  3702     0511  00E5               	movwf	___flmul@temp
  3703     0512                     l1963:
  3704     0512  0865               	movf	___flmul@temp,w
  3705     0513  00D5               	movwf	??___flmul
  3706     0514  01D6               	clrf	??___flmul+1
  3707     0515  01D7               	clrf	??___flmul+2
  3708     0516  01D8               	clrf	??___flmul+3
  3709     0517  0858               	movf	??___flmul+3,w
  3710     0518  00DE               	movwf	___flmul@grs+3
  3711     0519  0857               	movf	??___flmul+2,w
  3712     051A  00DD               	movwf	___flmul@grs+2
  3713     051B  0856               	movf	??___flmul+1,w
  3714     051C  00DC               	movwf	___flmul@grs+1
  3715     051D  0855               	movf	??___flmul,w
  3716     051E  00DB               	movwf	___flmul@grs
  3717     051F                     l1965:
  3718     051F  0866               	movf	___flmul@temp+1,w
  3719     0520  00D5               	movwf	??___flmul
  3720     0521  01D6               	clrf	??___flmul+1
  3721     0522  01D7               	clrf	??___flmul+2
  3722     0523  01D8               	clrf	??___flmul+3
  3723     0524  0858               	movf	??___flmul+3,w
  3724     0525  00E4               	movwf	___flmul@prod+3
  3725     0526  0857               	movf	??___flmul+2,w
  3726     0527  00E3               	movwf	___flmul@prod+2
  3727     0528  0856               	movf	??___flmul+1,w
  3728     0529  00E2               	movwf	___flmul@prod+1
  3729     052A  0855               	movf	??___flmul,w
  3730     052B  00E1               	movwf	___flmul@prod
  3731     052C  084E               	movf	___flmul@b+1,w
  3732     052D  00F0               	movwf	__Umul8_16@multiplicand
  3733     052E  0852               	movf	___flmul@a+1,w
  3734     052F  120A  158A  21F6  120A  118A  	fcall	__Umul8_16
  3735     0534  0871               	movf	?__Umul8_16+1,w
  3736     0535  1283               	bcf	3,5	;RP0=0, select bank0
  3737     0536  1303               	bcf	3,6	;RP1=0, select bank0
  3738     0537  00E6               	movwf	___flmul@temp+1
  3739     0538  0870               	movf	?__Umul8_16,w
  3740     0539  00E5               	movwf	___flmul@temp
  3741     053A                     l1967:
  3742     053A  0865               	movf	___flmul@temp,w
  3743     053B  00D5               	movwf	??___flmul
  3744     053C  01D6               	clrf	??___flmul+1
  3745     053D  01D7               	clrf	??___flmul+2
  3746     053E  01D8               	clrf	??___flmul+3
  3747     053F  0855               	movf	??___flmul,w
  3748     0540  07DB               	addwf	___flmul@grs,f
  3749     0541  0856               	movf	??___flmul+1,w
  3750     0542  1103               	clrz
  3751     0543  1803               	skipnc
  3752     0544  3E01               	addlw	1
  3753     0545  1903               	skipnz
  3754     0546  2D48               	goto	u2721
  3755     0547  07DC               	addwf	___flmul@grs+1,f
  3756     0548                     u2721:
  3757     0548  0857               	movf	??___flmul+2,w
  3758     0549  1103               	clrz
  3759     054A  1803               	skipnc
  3760     054B  3E01               	addlw	1
  3761     054C  1903               	skipnz
  3762     054D  2D4F               	goto	u2722
  3763     054E  07DD               	addwf	___flmul@grs+2,f
  3764     054F                     u2722:
  3765     054F  0858               	movf	??___flmul+3,w
  3766     0550  1103               	clrz
  3767     0551  1803               	skipnc
  3768     0552  3E01               	addlw	1
  3769     0553  1903               	skipnz
  3770     0554  2D56               	goto	u2723
  3771     0555  07DE               	addwf	___flmul@grs+3,f
  3772     0556                     u2723:
  3773     0556                     l1969:
  3774     0556  0866               	movf	___flmul@temp+1,w
  3775     0557  00D5               	movwf	??___flmul
  3776     0558  01D6               	clrf	??___flmul+1
  3777     0559  01D7               	clrf	??___flmul+2
  3778     055A  01D8               	clrf	??___flmul+3
  3779     055B  0855               	movf	??___flmul,w
  3780     055C  07E1               	addwf	___flmul@prod,f
  3781     055D  0856               	movf	??___flmul+1,w
  3782     055E  1103               	clrz
  3783     055F  1803               	skipnc
  3784     0560  3E01               	addlw	1
  3785     0561  1903               	skipnz
  3786     0562  2D64               	goto	u2731
  3787     0563  07E2               	addwf	___flmul@prod+1,f
  3788     0564                     u2731:
  3789     0564  0857               	movf	??___flmul+2,w
  3790     0565  1103               	clrz
  3791     0566  1803               	skipnc
  3792     0567  3E01               	addlw	1
  3793     0568  1903               	skipnz
  3794     0569  2D6B               	goto	u2732
  3795     056A  07E3               	addwf	___flmul@prod+2,f
  3796     056B                     u2732:
  3797     056B  0858               	movf	??___flmul+3,w
  3798     056C  1103               	clrz
  3799     056D  1803               	skipnc
  3800     056E  3E01               	addlw	1
  3801     056F  1903               	skipnz
  3802     0570  2D72               	goto	u2733
  3803     0571  07E4               	addwf	___flmul@prod+3,f
  3804     0572                     u2733:
  3805     0572  084F               	movf	___flmul@b+2,w
  3806     0573  00F0               	movwf	__Umul8_16@multiplicand
  3807     0574  0851               	movf	___flmul@a,w
  3808     0575  120A  158A  21F6  120A  118A  	fcall	__Umul8_16
  3809     057A  0871               	movf	?__Umul8_16+1,w
  3810     057B  1283               	bcf	3,5	;RP0=0, select bank0
  3811     057C  1303               	bcf	3,6	;RP1=0, select bank0
  3812     057D  00E6               	movwf	___flmul@temp+1
  3813     057E  0870               	movf	?__Umul8_16,w
  3814     057F  00E5               	movwf	___flmul@temp
  3815     0580                     l1971:
  3816     0580  0865               	movf	___flmul@temp,w
  3817     0581  00D5               	movwf	??___flmul
  3818     0582  01D6               	clrf	??___flmul+1
  3819     0583  01D7               	clrf	??___flmul+2
  3820     0584  01D8               	clrf	??___flmul+3
  3821     0585  0855               	movf	??___flmul,w
  3822     0586  07DB               	addwf	___flmul@grs,f
  3823     0587  0856               	movf	??___flmul+1,w
  3824     0588  1103               	clrz
  3825     0589  1803               	skipnc
  3826     058A  3E01               	addlw	1
  3827     058B  1903               	skipnz
  3828     058C  2D8E               	goto	u2741
  3829     058D  07DC               	addwf	___flmul@grs+1,f
  3830     058E                     u2741:
  3831     058E  0857               	movf	??___flmul+2,w
  3832     058F  1103               	clrz
  3833     0590  1803               	skipnc
  3834     0591  3E01               	addlw	1
  3835     0592  1903               	skipnz
  3836     0593  2D95               	goto	u2742
  3837     0594  07DD               	addwf	___flmul@grs+2,f
  3838     0595                     u2742:
  3839     0595  0858               	movf	??___flmul+3,w
  3840     0596  1103               	clrz
  3841     0597  1803               	skipnc
  3842     0598  3E01               	addlw	1
  3843     0599  1903               	skipnz
  3844     059A  2D9C               	goto	u2743
  3845     059B  07DE               	addwf	___flmul@grs+3,f
  3846     059C                     u2743:
  3847     059C                     l1973:
  3848     059C  0866               	movf	___flmul@temp+1,w
  3849     059D  00D5               	movwf	??___flmul
  3850     059E  01D6               	clrf	??___flmul+1
  3851     059F  01D7               	clrf	??___flmul+2
  3852     05A0  01D8               	clrf	??___flmul+3
  3853     05A1  0855               	movf	??___flmul,w
  3854     05A2  07E1               	addwf	___flmul@prod,f
  3855     05A3  0856               	movf	??___flmul+1,w
  3856     05A4  1103               	clrz
  3857     05A5  1803               	skipnc
  3858     05A6  3E01               	addlw	1
  3859     05A7  1903               	skipnz
  3860     05A8  2DAA               	goto	u2751
  3861     05A9  07E2               	addwf	___flmul@prod+1,f
  3862     05AA                     u2751:
  3863     05AA  0857               	movf	??___flmul+2,w
  3864     05AB  1103               	clrz
  3865     05AC  1803               	skipnc
  3866     05AD  3E01               	addlw	1
  3867     05AE  1903               	skipnz
  3868     05AF  2DB1               	goto	u2752
  3869     05B0  07E3               	addwf	___flmul@prod+2,f
  3870     05B1                     u2752:
  3871     05B1  0858               	movf	??___flmul+3,w
  3872     05B2  1103               	clrz
  3873     05B3  1803               	skipnc
  3874     05B4  3E01               	addlw	1
  3875     05B5  1903               	skipnz
  3876     05B6  2DB8               	goto	u2753
  3877     05B7  07E4               	addwf	___flmul@prod+3,f
  3878     05B8                     u2753:
  3879     05B8                     l1975:
  3880     05B8  3008               	movlw	8
  3881     05B9  00D5               	movwf	??___flmul
  3882     05BA                     u2765:
  3883     05BA  1003               	clrc
  3884     05BB  0DDB               	rlf	___flmul@grs,f
  3885     05BC  0DDC               	rlf	___flmul@grs+1,f
  3886     05BD  0DDD               	rlf	___flmul@grs+2,f
  3887     05BE  0DDE               	rlf	___flmul@grs+3,f
  3888     05BF  0BD5               	decfsz	??___flmul,f
  3889     05C0  2DBA               	goto	u2765
  3890     05C1                     l1977:
  3891     05C1  084E               	movf	___flmul@b+1,w
  3892     05C2  00F0               	movwf	__Umul8_16@multiplicand
  3893     05C3  0851               	movf	___flmul@a,w
  3894     05C4  120A  158A  21F6  120A  118A  	fcall	__Umul8_16
  3895     05C9  0871               	movf	?__Umul8_16+1,w
  3896     05CA  1283               	bcf	3,5	;RP0=0, select bank0
  3897     05CB  1303               	bcf	3,6	;RP1=0, select bank0
  3898     05CC  00E6               	movwf	___flmul@temp+1
  3899     05CD  0870               	movf	?__Umul8_16,w
  3900     05CE  00E5               	movwf	___flmul@temp
  3901     05CF                     l1979:
  3902     05CF  0865               	movf	___flmul@temp,w
  3903     05D0  00D5               	movwf	??___flmul
  3904     05D1  0866               	movf	___flmul@temp+1,w
  3905     05D2  00D6               	movwf	??___flmul+1
  3906     05D3  01D7               	clrf	??___flmul+2
  3907     05D4  01D8               	clrf	??___flmul+3
  3908     05D5  0855               	movf	??___flmul,w
  3909     05D6  07DB               	addwf	___flmul@grs,f
  3910     05D7  0856               	movf	??___flmul+1,w
  3911     05D8  1103               	clrz
  3912     05D9  1803               	skipnc
  3913     05DA  3E01               	addlw	1
  3914     05DB  1903               	skipnz
  3915     05DC  2DDE               	goto	u2771
  3916     05DD  07DC               	addwf	___flmul@grs+1,f
  3917     05DE                     u2771:
  3918     05DE  0857               	movf	??___flmul+2,w
  3919     05DF  1103               	clrz
  3920     05E0  1803               	skipnc
  3921     05E1  3E01               	addlw	1
  3922     05E2  1903               	skipnz
  3923     05E3  2DE5               	goto	u2772
  3924     05E4  07DD               	addwf	___flmul@grs+2,f
  3925     05E5                     u2772:
  3926     05E5  0858               	movf	??___flmul+3,w
  3927     05E6  1103               	clrz
  3928     05E7  1803               	skipnc
  3929     05E8  3E01               	addlw	1
  3930     05E9  1903               	skipnz
  3931     05EA  2DEC               	goto	u2773
  3932     05EB  07DE               	addwf	___flmul@grs+3,f
  3933     05EC                     u2773:
  3934     05EC                     l1981:
  3935     05EC  084D               	movf	___flmul@b,w
  3936     05ED  00F0               	movwf	__Umul8_16@multiplicand
  3937     05EE  0852               	movf	___flmul@a+1,w
  3938     05EF  120A  158A  21F6  120A  118A  	fcall	__Umul8_16
  3939     05F4  0871               	movf	?__Umul8_16+1,w
  3940     05F5  1283               	bcf	3,5	;RP0=0, select bank0
  3941     05F6  1303               	bcf	3,6	;RP1=0, select bank0
  3942     05F7  00E6               	movwf	___flmul@temp+1
  3943     05F8  0870               	movf	?__Umul8_16,w
  3944     05F9  00E5               	movwf	___flmul@temp
  3945     05FA                     l1983:
  3946     05FA  0865               	movf	___flmul@temp,w
  3947     05FB  00D5               	movwf	??___flmul
  3948     05FC  0866               	movf	___flmul@temp+1,w
  3949     05FD  00D6               	movwf	??___flmul+1
  3950     05FE  01D7               	clrf	??___flmul+2
  3951     05FF  01D8               	clrf	??___flmul+3
  3952     0600  0855               	movf	??___flmul,w
  3953     0601  07DB               	addwf	___flmul@grs,f
  3954     0602  0856               	movf	??___flmul+1,w
  3955     0603  1103               	clrz
  3956     0604  1803               	skipnc
  3957     0605  3E01               	addlw	1
  3958     0606  1903               	skipnz
  3959     0607  2E09               	goto	u2781
  3960     0608  07DC               	addwf	___flmul@grs+1,f
  3961     0609                     u2781:
  3962     0609  0857               	movf	??___flmul+2,w
  3963     060A  1103               	clrz
  3964     060B  1803               	skipnc
  3965     060C  3E01               	addlw	1
  3966     060D  1903               	skipnz
  3967     060E  2E10               	goto	u2782
  3968     060F  07DD               	addwf	___flmul@grs+2,f
  3969     0610                     u2782:
  3970     0610  0858               	movf	??___flmul+3,w
  3971     0611  1103               	clrz
  3972     0612  1803               	skipnc
  3973     0613  3E01               	addlw	1
  3974     0614  1903               	skipnz
  3975     0615  2E17               	goto	u2783
  3976     0616  07DE               	addwf	___flmul@grs+3,f
  3977     0617                     u2783:
  3978     0617                     l1985:
  3979     0617  3008               	movlw	8
  3980     0618  00D5               	movwf	??___flmul
  3981     0619                     u2795:
  3982     0619  1003               	clrc
  3983     061A  0DDB               	rlf	___flmul@grs,f
  3984     061B  0DDC               	rlf	___flmul@grs+1,f
  3985     061C  0DDD               	rlf	___flmul@grs+2,f
  3986     061D  0DDE               	rlf	___flmul@grs+3,f
  3987     061E  0BD5               	decfsz	??___flmul,f
  3988     061F  2E19               	goto	u2795
  3989     0620  084D               	movf	___flmul@b,w
  3990     0621  00F0               	movwf	__Umul8_16@multiplicand
  3991     0622  0851               	movf	___flmul@a,w
  3992     0623  120A  158A  21F6  120A  118A  	fcall	__Umul8_16
  3993     0628  0871               	movf	?__Umul8_16+1,w
  3994     0629  1283               	bcf	3,5	;RP0=0, select bank0
  3995     062A  1303               	bcf	3,6	;RP1=0, select bank0
  3996     062B  00E6               	movwf	___flmul@temp+1
  3997     062C  0870               	movf	?__Umul8_16,w
  3998     062D  00E5               	movwf	___flmul@temp
  3999     062E                     l1987:
  4000     062E  0865               	movf	___flmul@temp,w
  4001     062F  00D5               	movwf	??___flmul
  4002     0630  0866               	movf	___flmul@temp+1,w
  4003     0631  00D6               	movwf	??___flmul+1
  4004     0632  01D7               	clrf	??___flmul+2
  4005     0633  01D8               	clrf	??___flmul+3
  4006     0634  0855               	movf	??___flmul,w
  4007     0635  07DB               	addwf	___flmul@grs,f
  4008     0636  0856               	movf	??___flmul+1,w
  4009     0637  1103               	clrz
  4010     0638  1803               	skipnc
  4011     0639  3E01               	addlw	1
  4012     063A  1903               	skipnz
  4013     063B  2E3D               	goto	u2801
  4014     063C  07DC               	addwf	___flmul@grs+1,f
  4015     063D                     u2801:
  4016     063D  0857               	movf	??___flmul+2,w
  4017     063E  1103               	clrz
  4018     063F  1803               	skipnc
  4019     0640  3E01               	addlw	1
  4020     0641  1903               	skipnz
  4021     0642  2E44               	goto	u2802
  4022     0643  07DD               	addwf	___flmul@grs+2,f
  4023     0644                     u2802:
  4024     0644  0858               	movf	??___flmul+3,w
  4025     0645  1103               	clrz
  4026     0646  1803               	skipnc
  4027     0647  3E01               	addlw	1
  4028     0648  1903               	skipnz
  4029     0649  2E4B               	goto	u2803
  4030     064A  07DE               	addwf	___flmul@grs+3,f
  4031     064B                     u2803:
  4032     064B                     l1989:
  4033     064B  084E               	movf	___flmul@b+1,w
  4034     064C  00F0               	movwf	__Umul8_16@multiplicand
  4035     064D  0853               	movf	___flmul@a+2,w
  4036     064E  120A  158A  21F6  120A  118A  	fcall	__Umul8_16
  4037     0653  0871               	movf	?__Umul8_16+1,w
  4038     0654  1283               	bcf	3,5	;RP0=0, select bank0
  4039     0655  1303               	bcf	3,6	;RP1=0, select bank0
  4040     0656  00E6               	movwf	___flmul@temp+1
  4041     0657  0870               	movf	?__Umul8_16,w
  4042     0658  00E5               	movwf	___flmul@temp
  4043     0659  0865               	movf	___flmul@temp,w
  4044     065A  00D5               	movwf	??___flmul
  4045     065B  0866               	movf	___flmul@temp+1,w
  4046     065C  00D6               	movwf	??___flmul+1
  4047     065D  01D7               	clrf	??___flmul+2
  4048     065E  01D8               	clrf	??___flmul+3
  4049     065F  0855               	movf	??___flmul,w
  4050     0660  07E1               	addwf	___flmul@prod,f
  4051     0661  0856               	movf	??___flmul+1,w
  4052     0662  1103               	clrz
  4053     0663  1803               	skipnc
  4054     0664  3E01               	addlw	1
  4055     0665  1903               	skipnz
  4056     0666  2E68               	goto	u2811
  4057     0667  07E2               	addwf	___flmul@prod+1,f
  4058     0668                     u2811:
  4059     0668  0857               	movf	??___flmul+2,w
  4060     0669  1103               	clrz
  4061     066A  1803               	skipnc
  4062     066B  3E01               	addlw	1
  4063     066C  1903               	skipnz
  4064     066D  2E6F               	goto	u2812
  4065     066E  07E3               	addwf	___flmul@prod+2,f
  4066     066F                     u2812:
  4067     066F  0858               	movf	??___flmul+3,w
  4068     0670  1103               	clrz
  4069     0671  1803               	skipnc
  4070     0672  3E01               	addlw	1
  4071     0673  1903               	skipnz
  4072     0674  2E76               	goto	u2813
  4073     0675  07E4               	addwf	___flmul@prod+3,f
  4074     0676                     u2813:
  4075     0676                     l1991:
  4076     0676  084F               	movf	___flmul@b+2,w
  4077     0677  00F0               	movwf	__Umul8_16@multiplicand
  4078     0678  0852               	movf	___flmul@a+1,w
  4079     0679  120A  158A  21F6  120A  118A  	fcall	__Umul8_16
  4080     067E  0871               	movf	?__Umul8_16+1,w
  4081     067F  1283               	bcf	3,5	;RP0=0, select bank0
  4082     0680  1303               	bcf	3,6	;RP1=0, select bank0
  4083     0681  00E6               	movwf	___flmul@temp+1
  4084     0682  0870               	movf	?__Umul8_16,w
  4085     0683  00E5               	movwf	___flmul@temp
  4086     0684                     l1993:
  4087     0684  0865               	movf	___flmul@temp,w
  4088     0685  00D5               	movwf	??___flmul
  4089     0686  0866               	movf	___flmul@temp+1,w
  4090     0687  00D6               	movwf	??___flmul+1
  4091     0688  01D7               	clrf	??___flmul+2
  4092     0689  01D8               	clrf	??___flmul+3
  4093     068A  0855               	movf	??___flmul,w
  4094     068B  07E1               	addwf	___flmul@prod,f
  4095     068C  0856               	movf	??___flmul+1,w
  4096     068D  1103               	clrz
  4097     068E  1803               	skipnc
  4098     068F  3E01               	addlw	1
  4099     0690  1903               	skipnz
  4100     0691  2E93               	goto	u2821
  4101     0692  07E2               	addwf	___flmul@prod+1,f
  4102     0693                     u2821:
  4103     0693  0857               	movf	??___flmul+2,w
  4104     0694  1103               	clrz
  4105     0695  1803               	skipnc
  4106     0696  3E01               	addlw	1
  4107     0697  1903               	skipnz
  4108     0698  2E9A               	goto	u2822
  4109     0699  07E3               	addwf	___flmul@prod+2,f
  4110     069A                     u2822:
  4111     069A  0858               	movf	??___flmul+3,w
  4112     069B  1103               	clrz
  4113     069C  1803               	skipnc
  4114     069D  3E01               	addlw	1
  4115     069E  1903               	skipnz
  4116     069F  2EA1               	goto	u2823
  4117     06A0  07E4               	addwf	___flmul@prod+3,f
  4118     06A1                     u2823:
  4119     06A1  084F               	movf	___flmul@b+2,w
  4120     06A2  00F0               	movwf	__Umul8_16@multiplicand
  4121     06A3  0853               	movf	___flmul@a+2,w
  4122     06A4  120A  158A  21F6  120A  118A  	fcall	__Umul8_16
  4123     06A9  0871               	movf	?__Umul8_16+1,w
  4124     06AA  1283               	bcf	3,5	;RP0=0, select bank0
  4125     06AB  1303               	bcf	3,6	;RP1=0, select bank0
  4126     06AC  00E6               	movwf	___flmul@temp+1
  4127     06AD  0870               	movf	?__Umul8_16,w
  4128     06AE  00E5               	movwf	___flmul@temp
  4129     06AF                     l1995:
  4130     06AF  0865               	movf	___flmul@temp,w
  4131     06B0  00D5               	movwf	??___flmul
  4132     06B1  0866               	movf	___flmul@temp+1,w
  4133     06B2  00D6               	movwf	??___flmul+1
  4134     06B3  01D7               	clrf	??___flmul+2
  4135     06B4  01D8               	clrf	??___flmul+3
  4136     06B5  3008               	movlw	8
  4137     06B6                     u2835:
  4138     06B6  1003               	clrc
  4139     06B7  0DD5               	rlf	??___flmul,f
  4140     06B8  0DD6               	rlf	??___flmul+1,f
  4141     06B9  0DD7               	rlf	??___flmul+2,f
  4142     06BA  0DD8               	rlf	??___flmul+3,f
  4143     06BB                     u2830:
  4144     06BB  3EFF               	addlw	-1
  4145     06BC  1D03               	skipz
  4146     06BD  2EB6               	goto	u2835
  4147     06BE  0855               	movf	??___flmul,w
  4148     06BF  07E1               	addwf	___flmul@prod,f
  4149     06C0  0856               	movf	??___flmul+1,w
  4150     06C1  1103               	clrz
  4151     06C2  1803               	skipnc
  4152     06C3  3E01               	addlw	1
  4153     06C4  1903               	skipnz
  4154     06C5  2EC7               	goto	u2841
  4155     06C6  07E2               	addwf	___flmul@prod+1,f
  4156     06C7                     u2841:
  4157     06C7  0857               	movf	??___flmul+2,w
  4158     06C8  1103               	clrz
  4159     06C9  1803               	skipnc
  4160     06CA  3E01               	addlw	1
  4161     06CB  1903               	skipnz
  4162     06CC  2ECE               	goto	u2842
  4163     06CD  07E3               	addwf	___flmul@prod+2,f
  4164     06CE                     u2842:
  4165     06CE  0858               	movf	??___flmul+3,w
  4166     06CF  1103               	clrz
  4167     06D0  1803               	skipnc
  4168     06D1  3E01               	addlw	1
  4169     06D2  1903               	skipnz
  4170     06D3  2ED5               	goto	u2843
  4171     06D4  07E4               	addwf	___flmul@prod+3,f
  4172     06D5                     u2843:
  4173     06D5                     l1997:
  4174     06D5  085B               	movf	___flmul@grs,w
  4175     06D6  00D5               	movwf	??___flmul
  4176     06D7  085C               	movf	___flmul@grs+1,w
  4177     06D8  00D6               	movwf	??___flmul+1
  4178     06D9  085D               	movf	___flmul@grs+2,w
  4179     06DA  00D7               	movwf	??___flmul+2
  4180     06DB  085E               	movf	___flmul@grs+3,w
  4181     06DC  00D8               	movwf	??___flmul+3
  4182     06DD  3018               	movlw	24
  4183     06DE                     u2855:
  4184     06DE  1003               	clrc
  4185     06DF  0CD8               	rrf	??___flmul+3,f
  4186     06E0  0CD7               	rrf	??___flmul+2,f
  4187     06E1  0CD6               	rrf	??___flmul+1,f
  4188     06E2  0CD5               	rrf	??___flmul,f
  4189     06E3                     u2850:
  4190     06E3  3EFF               	addlw	-1
  4191     06E4  1D03               	skipz
  4192     06E5  2EDE               	goto	u2855
  4193     06E6  0855               	movf	??___flmul,w
  4194     06E7  07E1               	addwf	___flmul@prod,f
  4195     06E8  0856               	movf	??___flmul+1,w
  4196     06E9  1103               	clrz
  4197     06EA  1803               	skipnc
  4198     06EB  3E01               	addlw	1
  4199     06EC  1903               	skipnz
  4200     06ED  2EEF               	goto	u2861
  4201     06EE  07E2               	addwf	___flmul@prod+1,f
  4202     06EF                     u2861:
  4203     06EF  0857               	movf	??___flmul+2,w
  4204     06F0  1103               	clrz
  4205     06F1  1803               	skipnc
  4206     06F2  3E01               	addlw	1
  4207     06F3  1903               	skipnz
  4208     06F4  2EF6               	goto	u2862
  4209     06F5  07E3               	addwf	___flmul@prod+2,f
  4210     06F6                     u2862:
  4211     06F6  0858               	movf	??___flmul+3,w
  4212     06F7  1103               	clrz
  4213     06F8  1803               	skipnc
  4214     06F9  3E01               	addlw	1
  4215     06FA  1903               	skipnz
  4216     06FB  2EFD               	goto	u2863
  4217     06FC  07E4               	addwf	___flmul@prod+3,f
  4218     06FD                     u2863:
  4219     06FD                     l1999:
  4220     06FD  3008               	movlw	8
  4221     06FE  00D5               	movwf	??___flmul
  4222     06FF                     u2875:
  4223     06FF  1003               	clrc
  4224     0700  0DDB               	rlf	___flmul@grs,f
  4225     0701  0DDC               	rlf	___flmul@grs+1,f
  4226     0702  0DDD               	rlf	___flmul@grs+2,f
  4227     0703  0DDE               	rlf	___flmul@grs+3,f
  4228     0704  0BD5               	decfsz	??___flmul,f
  4229     0705  2EFF               	goto	u2875
  4230     0706                     l2001:
  4231     0706  0860               	movf	___flmul@bexp,w
  4232     0707  075F               	addwf	___flmul@aexp,w
  4233     0708  00D5               	movwf	??___flmul
  4234     0709  01D6               	clrf	??___flmul+1
  4235     070A  0DD6               	rlf	??___flmul+1,f
  4236     070B  0855               	movf	??___flmul,w
  4237     070C  3E82               	addlw	130
  4238     070D  00E5               	movwf	___flmul@temp
  4239     070E  0856               	movf	??___flmul+1,w
  4240     070F  1803               	skipnc
  4241     0710  3E01               	addlw	1
  4242     0711  3EFF               	addlw	255
  4243     0712  00E6               	movwf	___flmul@temp+1
  4244     0713  2F31               	goto	l2013
  4245     0714                     l2003:
  4246     0714  3001               	movlw	1
  4247     0715  00D5               	movwf	??___flmul
  4248     0716                     u2885:
  4249     0716  1003               	clrc
  4250     0717  0DE1               	rlf	___flmul@prod,f
  4251     0718  0DE2               	rlf	___flmul@prod+1,f
  4252     0719  0DE3               	rlf	___flmul@prod+2,f
  4253     071A  0DE4               	rlf	___flmul@prod+3,f
  4254     071B  0BD5               	decfsz	??___flmul,f
  4255     071C  2F16               	goto	u2885
  4256     071D                     l2005:
  4257     071D  1FDE               	btfss	___flmul@grs+3,7
  4258     071E  2F20               	goto	u2891
  4259     071F  2F21               	goto	u2890
  4260     0720                     u2891:
  4261     0720  2F22               	goto	l2009
  4262     0721                     u2890:
  4263     0721                     l2007:
  4264     0721  1461               	bsf	___flmul@prod,0
  4265     0722                     l2009:
  4266     0722  3001               	movlw	1
  4267     0723  00D5               	movwf	??___flmul
  4268     0724                     u2905:
  4269     0724  1003               	clrc
  4270     0725  0DDB               	rlf	___flmul@grs,f
  4271     0726  0DDC               	rlf	___flmul@grs+1,f
  4272     0727  0DDD               	rlf	___flmul@grs+2,f
  4273     0728  0DDE               	rlf	___flmul@grs+3,f
  4274     0729  0BD5               	decfsz	??___flmul,f
  4275     072A  2F24               	goto	u2905
  4276     072B                     l2011:
  4277     072B  30FF               	movlw	255
  4278     072C  07E5               	addwf	___flmul@temp,f
  4279     072D  1803               	skipnc
  4280     072E  0AE6               	incf	___flmul@temp+1,f
  4281     072F  30FF               	movlw	255
  4282     0730  07E6               	addwf	___flmul@temp+1,f
  4283     0731                     l2013:
  4284     0731  1FE3               	btfss	___flmul@prod+2,7
  4285     0732  2F34               	goto	u2911
  4286     0733  2F35               	goto	u2910
  4287     0734                     u2911:
  4288     0734  2F14               	goto	l2003
  4289     0735                     u2910:
  4290     0735                     l2015:
  4291     0735  01DF               	clrf	___flmul@aexp
  4292     0736                     l2017:
  4293     0736  1FDE               	btfss	___flmul@grs+3,7
  4294     0737  2F39               	goto	u2921
  4295     0738  2F3A               	goto	u2920
  4296     0739                     u2921:
  4297     0739  2F56               	goto	l2025
  4298     073A                     u2920:
  4299     073A                     l2019:
  4300     073A  30FF               	movlw	255
  4301     073B  055B               	andwf	___flmul@grs,w
  4302     073C  00D5               	movwf	??___flmul
  4303     073D  30FF               	movlw	255
  4304     073E  055C               	andwf	___flmul@grs+1,w
  4305     073F  00D6               	movwf	??___flmul+1
  4306     0740  30FF               	movlw	255
  4307     0741  055D               	andwf	___flmul@grs+2,w
  4308     0742  00D7               	movwf	??___flmul+2
  4309     0743  307F               	movlw	127
  4310     0744  055E               	andwf	___flmul@grs+3,w
  4311     0745  00D8               	movwf	??___flmul+3
  4312     0746  0858               	movf	??___flmul+3,w
  4313     0747  0457               	iorwf	??___flmul+2,w
  4314     0748  0456               	iorwf	??___flmul+1,w
  4315     0749  0455               	iorwf	??___flmul,w
  4316     074A  1903               	skipnz
  4317     074B  2F4D               	goto	u2931
  4318     074C  2F4E               	goto	u2930
  4319     074D                     u2931:
  4320     074D  2F51               	goto	l580
  4321     074E                     u2930:
  4322     074E                     l2021:
  4323     074E  01DF               	clrf	___flmul@aexp
  4324     074F  0ADF               	incf	___flmul@aexp,f
  4325     0750  2F56               	goto	l2025
  4326     0751                     l580:
  4327     0751  1C61               	btfss	___flmul@prod,0
  4328     0752  2F54               	goto	u2941
  4329     0753  2F55               	goto	u2940
  4330     0754                     u2941:
  4331     0754  2F56               	goto	l2025
  4332     0755                     u2940:
  4333     0755  2F4E               	goto	l2021
  4334     0756                     l2025:
  4335     0756  085F               	movf	___flmul@aexp,w
  4336     0757  1903               	btfsc	3,2
  4337     0758  2F5A               	goto	u2951
  4338     0759  2F5B               	goto	u2950
  4339     075A                     u2951:
  4340     075A  2F8C               	goto	l2035
  4341     075B                     u2950:
  4342     075B                     l2027:
  4343     075B  3001               	movlw	1
  4344     075C  07E1               	addwf	___flmul@prod,f
  4345     075D  3000               	movlw	0
  4346     075E  1803               	skipnc
  4347     075F  3001               	movlw	1
  4348     0760  07E2               	addwf	___flmul@prod+1,f
  4349     0761  3000               	movlw	0
  4350     0762  1803               	skipnc
  4351     0763  3001               	movlw	1
  4352     0764  07E3               	addwf	___flmul@prod+2,f
  4353     0765  3000               	movlw	0
  4354     0766  1803               	skipnc
  4355     0767  3001               	movlw	1
  4356     0768  07E4               	addwf	___flmul@prod+3,f
  4357     0769                     l2029:
  4358     0769  1C64               	btfss	___flmul@prod+3,0
  4359     076A  2F6C               	goto	u2961
  4360     076B  2F6D               	goto	u2960
  4361     076C                     u2961:
  4362     076C  2F8C               	goto	l2035
  4363     076D                     u2960:
  4364     076D                     l2031:
  4365     076D  0861               	movf	___flmul@prod,w
  4366     076E  00D5               	movwf	??___flmul
  4367     076F  0862               	movf	___flmul@prod+1,w
  4368     0770  00D6               	movwf	??___flmul+1
  4369     0771  0863               	movf	___flmul@prod+2,w
  4370     0772  00D7               	movwf	??___flmul+2
  4371     0773  0864               	movf	___flmul@prod+3,w
  4372     0774  00D8               	movwf	??___flmul+3
  4373     0775  3001               	movlw	1
  4374     0776  00D9               	movwf	??___flmul+4
  4375     0777                     u2975:
  4376     0777  0D58               	rlf	??___flmul+3,w
  4377     0778  0CD8               	rrf	??___flmul+3,f
  4378     0779  0CD7               	rrf	??___flmul+2,f
  4379     077A  0CD6               	rrf	??___flmul+1,f
  4380     077B  0CD5               	rrf	??___flmul,f
  4381     077C                     u2970:
  4382     077C  0BD9               	decfsz	??___flmul+4,f
  4383     077D  2F77               	goto	u2975
  4384     077E  0858               	movf	??___flmul+3,w
  4385     077F  00E4               	movwf	___flmul@prod+3
  4386     0780  0857               	movf	??___flmul+2,w
  4387     0781  00E3               	movwf	___flmul@prod+2
  4388     0782  0856               	movf	??___flmul+1,w
  4389     0783  00E2               	movwf	___flmul@prod+1
  4390     0784  0855               	movf	??___flmul,w
  4391     0785  00E1               	movwf	___flmul@prod
  4392     0786                     l2033:
  4393     0786  3001               	movlw	1
  4394     0787  07E5               	addwf	___flmul@temp,f
  4395     0788  1803               	skipnc
  4396     0789  0AE6               	incf	___flmul@temp+1,f
  4397     078A  3000               	movlw	0
  4398     078B  07E6               	addwf	___flmul@temp+1,f
  4399     078C                     l2035:
  4400     078C  0866               	movf	___flmul@temp+1,w
  4401     078D  3A80               	xorlw	128
  4402     078E  00FF               	movwf	btemp+1
  4403     078F  3080               	movlw	128
  4404     0790  027F               	subwf	btemp+1,w
  4405     0791  1D03               	skipz
  4406     0792  2F95               	goto	u2985
  4407     0793  30FF               	movlw	255
  4408     0794  0265               	subwf	___flmul@temp,w
  4409     0795                     u2985:
  4410     0795  1C03               	skipc
  4411     0796  2F98               	goto	u2981
  4412     0797  2F99               	goto	u2980
  4413     0798                     u2981:
  4414     0798  2FA4               	goto	l2039
  4415     0799                     u2980:
  4416     0799                     l2037:
  4417     0799  307F               	movlw	127
  4418     079A  1283               	bcf	3,5	;RP0=0, select bank0
  4419     079B  1303               	bcf	3,6	;RP1=0, select bank0
  4420     079C  00E4               	movwf	___flmul@prod+3
  4421     079D  3080               	movlw	128
  4422     079E  00E3               	movwf	___flmul@prod+2
  4423     079F  3000               	movlw	0
  4424     07A0  00E2               	movwf	___flmul@prod+1
  4425     07A1  3000               	movlw	0
  4426     07A2  00E1               	movwf	___flmul@prod
  4427     07A3  2FD5               	goto	l2053
  4428     07A4                     l2039:
  4429     07A4  1283               	bcf	3,5	;RP0=0, select bank0
  4430     07A5  1303               	bcf	3,6	;RP1=0, select bank0
  4431     07A6  0866               	movf	___flmul@temp+1,w
  4432     07A7  3A80               	xorlw	128
  4433     07A8  00FF               	movwf	btemp+1
  4434     07A9  3080               	movlw	128
  4435     07AA  027F               	subwf	btemp+1,w
  4436     07AB  1D03               	skipz
  4437     07AC  2FAF               	goto	u2995
  4438     07AD  3001               	movlw	1
  4439     07AE  0265               	subwf	___flmul@temp,w
  4440     07AF                     u2995:
  4441     07AF  1803               	skipnc
  4442     07B0  2FB2               	goto	u2991
  4443     07B1  2FB3               	goto	u2990
  4444     07B2                     u2991:
  4445     07B2  2FBF               	goto	l2045
  4446     07B3                     u2990:
  4447     07B3                     l2041:
  4448     07B3  3000               	movlw	0
  4449     07B4  1283               	bcf	3,5	;RP0=0, select bank0
  4450     07B5  1303               	bcf	3,6	;RP1=0, select bank0
  4451     07B6  00E4               	movwf	___flmul@prod+3
  4452     07B7  3000               	movlw	0
  4453     07B8  00E3               	movwf	___flmul@prod+2
  4454     07B9  3000               	movlw	0
  4455     07BA  00E2               	movwf	___flmul@prod+1
  4456     07BB  3000               	movlw	0
  4457     07BC  00E1               	movwf	___flmul@prod
  4458     07BD                     l2043:
  4459     07BD  01DA               	clrf	___flmul@sign
  4460     07BE  2FD5               	goto	l2053
  4461     07BF                     l2045:
  4462     07BF  1283               	bcf	3,5	;RP0=0, select bank0
  4463     07C0  1303               	bcf	3,6	;RP1=0, select bank0
  4464     07C1  0865               	movf	___flmul@temp,w
  4465     07C2  00E0               	movwf	___flmul@bexp
  4466     07C3  30FF               	movlw	255
  4467     07C4  05E1               	andwf	___flmul@prod,f
  4468     07C5  30FF               	movlw	255
  4469     07C6  05E2               	andwf	___flmul@prod+1,f
  4470     07C7  307F               	movlw	127
  4471     07C8  05E3               	andwf	___flmul@prod+2,f
  4472     07C9  3000               	movlw	0
  4473     07CA  05E4               	andwf	___flmul@prod+3,f
  4474     07CB                     l2047:
  4475     07CB  1C60               	btfss	___flmul@bexp,0
  4476     07CC  2FCE               	goto	u3001
  4477     07CD  2FCF               	goto	u3000
  4478     07CE                     u3001:
  4479     07CE  2FD0               	goto	l2051
  4480     07CF                     u3000:
  4481     07CF                     l2049:
  4482     07CF  17E3               	bsf	___flmul@prod+2,7
  4483     07D0                     l2051:
  4484     07D0  0860               	movf	___flmul@bexp,w
  4485     07D1  00D5               	movwf	??___flmul
  4486     07D2  1003               	clrc
  4487     07D3  0C55               	rrf	??___flmul,w
  4488     07D4  00E4               	movwf	___flmul@prod+3
  4489     07D5                     l2053:
  4490     07D5  085A               	movf	___flmul@sign,w
  4491     07D6  00FF               	movwf	btemp+1
  4492     07D7  087F               	movf	btemp+1,w
  4493     07D8  04E4               	iorwf	___flmul@prod+3,f
  4494     07D9                     l2055:
  4495     07D9  0864               	movf	___flmul@prod+3,w
  4496     07DA  00D0               	movwf	?___flmul+3
  4497     07DB  0863               	movf	___flmul@prod+2,w
  4498     07DC  00CF               	movwf	?___flmul+2
  4499     07DD  0862               	movf	___flmul@prod+1,w
  4500     07DE  00CE               	movwf	?___flmul+1
  4501     07DF  0861               	movf	___flmul@prod,w
  4502     07E0  00CD               	movwf	?___flmul
  4503     07E1                     l574:
  4504     07E1  0008               	return
  4505     07E2                     __end_of___flmul:
  4506                           
  4507                           	psect	text11
  4508     09F6                     __ptext11:	
  4509 ;; *************** function __Umul8_16 *****************
  4510 ;; Defined at:
  4511 ;;		line 4 in file "C:\Program Files\Microchip\xc8\v2.45\pic\sources\c99\common\Umul8_16.c"
  4512 ;; Parameters:    Size  Location     Type
  4513 ;;  multiplier      1    wreg     unsigned char 
  4514 ;;  multiplicand    1    0[COMMON] unsigned char 
  4515 ;; Auto vars:     Size  Location     Type
  4516 ;;  multiplier      1    8[COMMON] unsigned char 
  4517 ;;  word_mpld       2    6[COMMON] unsigned short 
  4518 ;;  product         2    4[COMMON] unsigned short 
  4519 ;; Return value:  Size  Location     Type
  4520 ;;                  2    0[COMMON] unsigned int 
  4521 ;; Registers used:
  4522 ;;		wreg, status,2, status,0
  4523 ;; Tracked objects:
  4524 ;;		On entry : 0/0
  4525 ;;		On exit  : 0/0
  4526 ;;		Unchanged: 0/0
  4527 ;; Data sizes:     COMMON   BANK0   BANK1   BANK3   BANK2
  4528 ;;      Params:         2       0       0       0       0
  4529 ;;      Locals:         5       0       0       0       0
  4530 ;;      Temps:          2       0       0       0       0
  4531 ;;      Totals:         9       0       0       0       0
  4532 ;;Total ram usage:        9 bytes
  4533 ;; Hardware stack levels used: 1
  4534 ;; This function calls:
  4535 ;;		Nothing
  4536 ;; This function is called by:
  4537 ;;		___flmul
  4538 ;; This function uses a non-reentrant model
  4539 ;;
  4540                           
  4541     09F6                     __Umul8_16:	
  4542                           ;psect for function __Umul8_16
  4543                           
  4544                           
  4545                           ;incstack = 0
  4546                           ; Regs used in __Umul8_16: [wreg+status,2+status,0]
  4547                           ;__Umul8_16@multiplier stored from wreg
  4548     09F6  00F8               	movwf	__Umul8_16@multiplier
  4549     09F7                     l1661:
  4550     09F7  01F4               	clrf	__Umul8_16@product
  4551     09F8  01F5               	clrf	__Umul8_16@product+1
  4552     09F9                     l1663:
  4553     09F9  0870               	movf	__Umul8_16@multiplicand,w
  4554     09FA  00F2               	movwf	??__Umul8_16
  4555     09FB  01F3               	clrf	??__Umul8_16+1
  4556     09FC  0872               	movf	??__Umul8_16,w
  4557     09FD  00F6               	movwf	__Umul8_16@word_mpld
  4558     09FE  0873               	movf	??__Umul8_16+1,w
  4559     09FF  00F7               	movwf	__Umul8_16@word_mpld+1
  4560     0A00                     l1665:
  4561     0A00  1C78               	btfss	__Umul8_16@multiplier,0
  4562     0A01  2A03               	goto	u2101
  4563     0A02  2A04               	goto	u2100
  4564     0A03                     u2101:
  4565     0A03  2A0A               	goto	l593
  4566     0A04                     u2100:
  4567     0A04                     l1667:
  4568     0A04  0876               	movf	__Umul8_16@word_mpld,w
  4569     0A05  07F4               	addwf	__Umul8_16@product,f
  4570     0A06  1803               	skipnc
  4571     0A07  0AF5               	incf	__Umul8_16@product+1,f
  4572     0A08  0877               	movf	__Umul8_16@word_mpld+1,w
  4573     0A09  07F5               	addwf	__Umul8_16@product+1,f
  4574     0A0A                     l593:
  4575     0A0A  3001               	movlw	1
  4576     0A0B                     u2115:
  4577     0A0B  1003               	clrc
  4578     0A0C  0DF6               	rlf	__Umul8_16@word_mpld,f
  4579     0A0D  0DF7               	rlf	__Umul8_16@word_mpld+1,f
  4580     0A0E  3EFF               	addlw	-1
  4581     0A0F  1D03               	skipz
  4582     0A10  2A0B               	goto	u2115
  4583     0A11  1003               	clrc
  4584     0A12  0CF8               	rrf	__Umul8_16@multiplier,f
  4585     0A13                     l1669:
  4586     0A13  0878               	movf	__Umul8_16@multiplier,w
  4587     0A14  1D03               	btfss	3,2
  4588     0A15  2A17               	goto	u2121
  4589     0A16  2A18               	goto	u2120
  4590     0A17                     u2121:
  4591     0A17  2A00               	goto	l1665
  4592     0A18                     u2120:
  4593     0A18                     l1671:
  4594     0A18  0875               	movf	__Umul8_16@product+1,w
  4595     0A19  00F1               	movwf	?__Umul8_16+1
  4596     0A1A  0874               	movf	__Umul8_16@product,w
  4597     0A1B  00F0               	movwf	?__Umul8_16
  4598     0A1C                     l595:
  4599     0A1C  0008               	return
  4600     0A1D                     __end_of__Umul8_16:
  4601                           
  4602                           	psect	text12
  4603     0064                     __ptext12:	
  4604 ;; *************** function ___fldiv *****************
  4605 ;; Defined at:
  4606 ;;		line 8 in file "C:\Program Files\Microchip\xc8\v2.45\pic\sources\c99\common\sprcdiv.c"
  4607 ;; Parameters:    Size  Location     Type
  4608 ;;  a               4    0[COMMON] unsigned int 
  4609 ;;  b               4    4[COMMON] unsigned int 
  4610 ;; Auto vars:     Size  Location     Type
  4611 ;;  grs             4    7[BANK0 ] unsigned long 
  4612 ;;  rem             4    0[BANK0 ] unsigned long 
  4613 ;;  new_exp         2    5[BANK0 ] short 
  4614 ;;  aexp            1   12[BANK0 ] unsigned char 
  4615 ;;  bexp            1   11[BANK0 ] unsigned char 
  4616 ;;  sign            1    4[BANK0 ] unsigned char 
  4617 ;; Return value:  Size  Location     Type
  4618 ;;                  4    0[COMMON] unsigned char 
  4619 ;; Registers used:
  4620 ;;		wreg, status,2, status,0, btemp+1
  4621 ;; Tracked objects:
  4622 ;;		On entry : 0/0
  4623 ;;		On exit  : 0/0
  4624 ;;		Unchanged: 0/0
  4625 ;; Data sizes:     COMMON   BANK0   BANK1   BANK3   BANK2
  4626 ;;      Params:         8       0       0       0       0
  4627 ;;      Locals:         0      13       0       0       0
  4628 ;;      Temps:          5       0       0       0       0
  4629 ;;      Totals:        13      13       0       0       0
  4630 ;;Total ram usage:       26 bytes
  4631 ;; Hardware stack levels used: 1
  4632 ;; This function calls:
  4633 ;;		Nothing
  4634 ;; This function is called by:
  4635 ;;		_LCD_output
  4636 ;; This function uses a non-reentrant model
  4637 ;;
  4638                           
  4639     0064                     ___fldiv:	
  4640                           ;psect for function ___fldiv
  4641                           
  4642     0064                     l1771:	
  4643                           ;incstack = 0
  4644                           ; Regs used in ___fldiv: [wreg+status,2+status,0+btemp+1]
  4645                           
  4646     0064  0877               	movf	___fldiv@b+3,w
  4647     0065  3980               	andlw	128
  4648     0066  1283               	bcf	3,5	;RP0=0, select bank0
  4649     0067  1303               	bcf	3,6	;RP1=0, select bank0
  4650     0068  00A4               	movwf	___fldiv@sign
  4651     0069                     l1773:
  4652     0069  0877               	movf	___fldiv@b+3,w
  4653     006A  00F8               	movwf	??___fldiv
  4654     006B  0778               	addwf	??___fldiv,w
  4655     006C  00AB               	movwf	___fldiv@bexp
  4656     006D                     l1775:
  4657     006D  1FF6               	btfss	___fldiv@b+2,7
  4658     006E  2870               	goto	u2341
  4659     006F  2871               	goto	u2340
  4660     0070                     u2341:
  4661     0070  2872               	goto	l1779
  4662     0071                     u2340:
  4663     0071                     l1777:
  4664     0071  142B               	bsf	___fldiv@bexp,0
  4665     0072                     l1779:
  4666     0072  082B               	movf	___fldiv@bexp,w
  4667     0073  1903               	btfsc	3,2
  4668     0074  2876               	goto	u2351
  4669     0075  2877               	goto	u2350
  4670     0076                     u2351:
  4671     0076  2887               	goto	l1789
  4672     0077                     u2350:
  4673     0077                     l1781:
  4674     0077  0A2B               	incf	___fldiv@bexp,w
  4675     0078  1D03               	btfss	3,2
  4676     0079  287B               	goto	u2361
  4677     007A  287C               	goto	u2360
  4678     007B                     u2361:
  4679     007B  2884               	goto	l1785
  4680     007C                     u2360:
  4681     007C                     l1783:
  4682     007C  3000               	movlw	0
  4683     007D  00F7               	movwf	___fldiv@b+3
  4684     007E  3000               	movlw	0
  4685     007F  00F6               	movwf	___fldiv@b+2
  4686     0080  3000               	movlw	0
  4687     0081  00F5               	movwf	___fldiv@b+1
  4688     0082  3000               	movlw	0
  4689     0083  00F4               	movwf	___fldiv@b
  4690     0084                     l1785:
  4691     0084  17F6               	bsf	___fldiv@b+2,7
  4692     0085                     l1787:
  4693     0085  01F7               	clrf	___fldiv@b+3
  4694     0086  288F               	goto	l1791
  4695     0087                     l1789:
  4696     0087  3000               	movlw	0
  4697     0088  00F7               	movwf	___fldiv@b+3
  4698     0089  3000               	movlw	0
  4699     008A  00F6               	movwf	___fldiv@b+2
  4700     008B  3000               	movlw	0
  4701     008C  00F5               	movwf	___fldiv@b+1
  4702     008D  3000               	movlw	0
  4703     008E  00F4               	movwf	___fldiv@b
  4704     008F                     l1791:
  4705     008F  0873               	movf	___fldiv@a+3,w
  4706     0090  3980               	andlw	128
  4707     0091  00FF               	movwf	btemp+1
  4708     0092  087F               	movf	btemp+1,w
  4709     0093  06A4               	xorwf	___fldiv@sign,f
  4710     0094                     l1793:
  4711     0094  0873               	movf	___fldiv@a+3,w
  4712     0095  00F8               	movwf	??___fldiv
  4713     0096  0778               	addwf	??___fldiv,w
  4714     0097  00AC               	movwf	___fldiv@aexp
  4715     0098                     l1795:
  4716     0098  1FF2               	btfss	___fldiv@a+2,7
  4717     0099  289B               	goto	u2371
  4718     009A  289C               	goto	u2370
  4719     009B                     u2371:
  4720     009B  289D               	goto	l1799
  4721     009C                     u2370:
  4722     009C                     l1797:
  4723     009C  142C               	bsf	___fldiv@aexp,0
  4724     009D                     l1799:
  4725     009D  082C               	movf	___fldiv@aexp,w
  4726     009E  1903               	btfsc	3,2
  4727     009F  28A1               	goto	u2381
  4728     00A0  28A2               	goto	u2380
  4729     00A1                     u2381:
  4730     00A1  28B2               	goto	l1809
  4731     00A2                     u2380:
  4732     00A2                     l1801:
  4733     00A2  0A2C               	incf	___fldiv@aexp,w
  4734     00A3  1D03               	btfss	3,2
  4735     00A4  28A6               	goto	u2391
  4736     00A5  28A7               	goto	u2390
  4737     00A6                     u2391:
  4738     00A6  28AF               	goto	l1805
  4739     00A7                     u2390:
  4740     00A7                     l1803:
  4741     00A7  3000               	movlw	0
  4742     00A8  00F3               	movwf	___fldiv@a+3
  4743     00A9  3000               	movlw	0
  4744     00AA  00F2               	movwf	___fldiv@a+2
  4745     00AB  3000               	movlw	0
  4746     00AC  00F1               	movwf	___fldiv@a+1
  4747     00AD  3000               	movlw	0
  4748     00AE  00F0               	movwf	___fldiv@a
  4749     00AF                     l1805:
  4750     00AF  17F2               	bsf	___fldiv@a+2,7
  4751     00B0                     l1807:
  4752     00B0  01F3               	clrf	___fldiv@a+3
  4753     00B1  28BA               	goto	l534
  4754     00B2                     l1809:
  4755     00B2  3000               	movlw	0
  4756     00B3  00F3               	movwf	___fldiv@a+3
  4757     00B4  3000               	movlw	0
  4758     00B5  00F2               	movwf	___fldiv@a+2
  4759     00B6  3000               	movlw	0
  4760     00B7  00F1               	movwf	___fldiv@a+1
  4761     00B8  3000               	movlw	0
  4762     00B9  00F0               	movwf	___fldiv@a
  4763     00BA                     l534:
  4764     00BA  0873               	movf	___fldiv@a+3,w
  4765     00BB  0472               	iorwf	___fldiv@a+2,w
  4766     00BC  0471               	iorwf	___fldiv@a+1,w
  4767     00BD  0470               	iorwf	___fldiv@a,w
  4768     00BE  1D03               	skipz
  4769     00BF  28C1               	goto	u2401
  4770     00C0  28C2               	goto	u2400
  4771     00C1                     u2401:
  4772     00C1  28DB               	goto	l1819
  4773     00C2                     u2400:
  4774     00C2                     l1811:
  4775     00C2  3000               	movlw	0
  4776     00C3  00F7               	movwf	___fldiv@b+3
  4777     00C4  3000               	movlw	0
  4778     00C5  00F6               	movwf	___fldiv@b+2
  4779     00C6  3000               	movlw	0
  4780     00C7  00F5               	movwf	___fldiv@b+1
  4781     00C8  3000               	movlw	0
  4782     00C9  00F4               	movwf	___fldiv@b
  4783     00CA  3080               	movlw	128
  4784     00CB  04F6               	iorwf	___fldiv@b+2,f
  4785     00CC  307F               	movlw	127
  4786     00CD  04F7               	iorwf	___fldiv@b+3,f
  4787     00CE                     l1813:
  4788     00CE  0824               	movf	___fldiv@sign,w
  4789     00CF  00FF               	movwf	btemp+1
  4790     00D0  087F               	movf	btemp+1,w
  4791     00D1  04F7               	iorwf	___fldiv@b+3,f
  4792     00D2                     l1815:
  4793     00D2  0877               	movf	___fldiv@b+3,w
  4794     00D3  00F3               	movwf	?___fldiv+3
  4795     00D4  0876               	movf	___fldiv@b+2,w
  4796     00D5  00F2               	movwf	?___fldiv+2
  4797     00D6  0875               	movf	___fldiv@b+1,w
  4798     00D7  00F1               	movwf	?___fldiv+1
  4799     00D8  0874               	movf	___fldiv@b,w
  4800     00D9  00F0               	movwf	?___fldiv
  4801     00DA  2A38               	goto	l536
  4802     00DB                     l1819:
  4803     00DB  082B               	movf	___fldiv@bexp,w
  4804     00DC  1D03               	btfss	3,2
  4805     00DD  28DF               	goto	u2411
  4806     00DE  28E0               	goto	u2410
  4807     00DF                     u2411:
  4808     00DF  28E9               	goto	l1825
  4809     00E0                     u2410:
  4810     00E0                     l1821:
  4811     00E0  3000               	movlw	0
  4812     00E1  00F3               	movwf	?___fldiv+3
  4813     00E2  3000               	movlw	0
  4814     00E3  00F2               	movwf	?___fldiv+2
  4815     00E4  3000               	movlw	0
  4816     00E5  00F1               	movwf	?___fldiv+1
  4817     00E6  3000               	movlw	0
  4818     00E7  00F0               	movwf	?___fldiv
  4819     00E8  2A38               	goto	l536
  4820     00E9                     l1825:
  4821     00E9  082B               	movf	___fldiv@bexp,w
  4822     00EA  00F8               	movwf	??___fldiv
  4823     00EB  01F9               	clrf	??___fldiv+1
  4824     00EC  0879               	movf	??___fldiv+1,w
  4825     00ED  00FB               	movwf	??___fldiv+3
  4826     00EE  082C               	movf	___fldiv@aexp,w
  4827     00EF  0278               	subwf	??___fldiv,w
  4828     00F0  00FA               	movwf	??___fldiv+2
  4829     00F1  1C03               	skipc
  4830     00F2  03FB               	decf	??___fldiv+3,f
  4831     00F3  087A               	movf	??___fldiv+2,w
  4832     00F4  3E7F               	addlw	127
  4833     00F5  00A5               	movwf	___fldiv@new_exp
  4834     00F6  087B               	movf	??___fldiv+3,w
  4835     00F7  1803               	skipnc
  4836     00F8  3E01               	addlw	1
  4837     00F9  3E00               	addlw	0
  4838     00FA  00A6               	movwf	___fldiv@new_exp+1
  4839     00FB                     l1827:
  4840     00FB  0877               	movf	___fldiv@b+3,w
  4841     00FC  00A3               	movwf	___fldiv@rem+3
  4842     00FD  0876               	movf	___fldiv@b+2,w
  4843     00FE  00A2               	movwf	___fldiv@rem+2
  4844     00FF  0875               	movf	___fldiv@b+1,w
  4845     0100  00A1               	movwf	___fldiv@rem+1
  4846     0101  0874               	movf	___fldiv@b,w
  4847     0102  00A0               	movwf	___fldiv@rem
  4848     0103                     l1829:
  4849     0103  3000               	movlw	0
  4850     0104  00F7               	movwf	___fldiv@b+3
  4851     0105  3000               	movlw	0
  4852     0106  00F6               	movwf	___fldiv@b+2
  4853     0107  3000               	movlw	0
  4854     0108  00F5               	movwf	___fldiv@b+1
  4855     0109  3000               	movlw	0
  4856     010A  00F4               	movwf	___fldiv@b
  4857     010B                     l1831:
  4858     010B  3000               	movlw	0
  4859     010C  00AA               	movwf	___fldiv@grs+3
  4860     010D  3000               	movlw	0
  4861     010E  00A9               	movwf	___fldiv@grs+2
  4862     010F  3000               	movlw	0
  4863     0110  00A8               	movwf	___fldiv@grs+1
  4864     0111  3000               	movlw	0
  4865     0112  00A7               	movwf	___fldiv@grs
  4866     0113                     l1833:
  4867     0113  01AC               	clrf	___fldiv@aexp
  4868     0114  2965               	goto	l1853
  4869     0115                     l1835:
  4870     0115  082C               	movf	___fldiv@aexp,w
  4871     0116  1903               	btfsc	3,2
  4872     0117  2919               	goto	u2421
  4873     0118  291A               	goto	u2420
  4874     0119                     u2421:
  4875     0119  293A               	goto	l1845
  4876     011A                     u2420:
  4877     011A                     l1837:
  4878     011A  3001               	movlw	1
  4879     011B  00F8               	movwf	??___fldiv
  4880     011C                     u2435:
  4881     011C  1003               	clrc
  4882     011D  0DA0               	rlf	___fldiv@rem,f
  4883     011E  0DA1               	rlf	___fldiv@rem+1,f
  4884     011F  0DA2               	rlf	___fldiv@rem+2,f
  4885     0120  0DA3               	rlf	___fldiv@rem+3,f
  4886     0121  0BF8               	decfsz	??___fldiv,f
  4887     0122  291C               	goto	u2435
  4888     0123  3001               	movlw	1
  4889     0124  00F8               	movwf	??___fldiv
  4890     0125                     u2445:
  4891     0125  1003               	clrc
  4892     0126  0DF4               	rlf	___fldiv@b,f
  4893     0127  0DF5               	rlf	___fldiv@b+1,f
  4894     0128  0DF6               	rlf	___fldiv@b+2,f
  4895     0129  0DF7               	rlf	___fldiv@b+3,f
  4896     012A  0BF8               	decfsz	??___fldiv,f
  4897     012B  2925               	goto	u2445
  4898     012C                     l1839:
  4899     012C  1FAA               	btfss	___fldiv@grs+3,7
  4900     012D  292F               	goto	u2451
  4901     012E  2930               	goto	u2450
  4902     012F                     u2451:
  4903     012F  2931               	goto	l1843
  4904     0130                     u2450:
  4905     0130                     l1841:
  4906     0130  1474               	bsf	___fldiv@b,0
  4907     0131                     l1843:
  4908     0131  3001               	movlw	1
  4909     0132  00F8               	movwf	??___fldiv
  4910     0133                     u2465:
  4911     0133  1003               	clrc
  4912     0134  0DA7               	rlf	___fldiv@grs,f
  4913     0135  0DA8               	rlf	___fldiv@grs+1,f
  4914     0136  0DA9               	rlf	___fldiv@grs+2,f
  4915     0137  0DAA               	rlf	___fldiv@grs+3,f
  4916     0138  0BF8               	decfsz	??___fldiv,f
  4917     0139  2933               	goto	u2465
  4918     013A                     l1845:
  4919     013A  0873               	movf	___fldiv@a+3,w
  4920     013B  0223               	subwf	___fldiv@rem+3,w
  4921     013C  1D03               	skipz
  4922     013D  2948               	goto	u2475
  4923     013E  0872               	movf	___fldiv@a+2,w
  4924     013F  0222               	subwf	___fldiv@rem+2,w
  4925     0140  1D03               	skipz
  4926     0141  2948               	goto	u2475
  4927     0142  0871               	movf	___fldiv@a+1,w
  4928     0143  0221               	subwf	___fldiv@rem+1,w
  4929     0144  1D03               	skipz
  4930     0145  2948               	goto	u2475
  4931     0146  0870               	movf	___fldiv@a,w
  4932     0147  0220               	subwf	___fldiv@rem,w
  4933     0148                     u2475:
  4934     0148  1C03               	skipc
  4935     0149  294B               	goto	u2471
  4936     014A  294C               	goto	u2470
  4937     014B                     u2471:
  4938     014B  2961               	goto	l1851
  4939     014C                     u2470:
  4940     014C                     l1847:
  4941     014C  172A               	bsf	___fldiv@grs+3,6
  4942     014D                     l1849:
  4943     014D  0870               	movf	___fldiv@a,w
  4944     014E  02A0               	subwf	___fldiv@rem,f
  4945     014F  0871               	movf	___fldiv@a+1,w
  4946     0150  1C03               	skipc
  4947     0151  0F71               	incfsz	___fldiv@a+1,w
  4948     0152  2954               	goto	u2485
  4949     0153  2955               	goto	u2486
  4950     0154                     u2485:
  4951     0154  02A1               	subwf	___fldiv@rem+1,f
  4952     0155                     u2486:
  4953     0155  0872               	movf	___fldiv@a+2,w
  4954     0156  1C03               	skipc
  4955     0157  0F72               	incfsz	___fldiv@a+2,w
  4956     0158  295A               	goto	u2487
  4957     0159  295B               	goto	u2488
  4958     015A                     u2487:
  4959     015A  02A2               	subwf	___fldiv@rem+2,f
  4960     015B                     u2488:
  4961     015B  0873               	movf	___fldiv@a+3,w
  4962     015C  1C03               	skipc
  4963     015D  0F73               	incfsz	___fldiv@a+3,w
  4964     015E  2960               	goto	u2489
  4965     015F  2961               	goto	u2480
  4966     0160                     u2489:
  4967     0160  02A3               	subwf	___fldiv@rem+3,f
  4968     0161                     u2480:
  4969     0161                     l1851:
  4970     0161  3001               	movlw	1
  4971     0162  00FF               	movwf	btemp+1
  4972     0163  087F               	movf	btemp+1,w
  4973     0164  07AC               	addwf	___fldiv@aexp,f
  4974     0165                     l1853:
  4975     0165  301A               	movlw	26
  4976     0166  022C               	subwf	___fldiv@aexp,w
  4977     0167  1C03               	skipc
  4978     0168  296A               	goto	u2491
  4979     0169  296B               	goto	u2490
  4980     016A                     u2491:
  4981     016A  2915               	goto	l1835
  4982     016B                     u2490:
  4983     016B                     l1855:
  4984     016B  0823               	movf	___fldiv@rem+3,w
  4985     016C  0422               	iorwf	___fldiv@rem+2,w
  4986     016D  0421               	iorwf	___fldiv@rem+1,w
  4987     016E  0420               	iorwf	___fldiv@rem,w
  4988     016F  1903               	skipnz
  4989     0170  2972               	goto	u2501
  4990     0171  2973               	goto	u2500
  4991     0172                     u2501:
  4992     0172  2992               	goto	l1869
  4993     0173                     u2500:
  4994     0173                     l1857:
  4995     0173  1427               	bsf	___fldiv@grs,0
  4996     0174  2992               	goto	l1869
  4997     0175                     l1859:
  4998     0175  3001               	movlw	1
  4999     0176  00F8               	movwf	??___fldiv
  5000     0177                     u2515:
  5001     0177  1003               	clrc
  5002     0178  0DF4               	rlf	___fldiv@b,f
  5003     0179  0DF5               	rlf	___fldiv@b+1,f
  5004     017A  0DF6               	rlf	___fldiv@b+2,f
  5005     017B  0DF7               	rlf	___fldiv@b+3,f
  5006     017C  0BF8               	decfsz	??___fldiv,f
  5007     017D  2977               	goto	u2515
  5008     017E                     l1861:
  5009     017E  1FAA               	btfss	___fldiv@grs+3,7
  5010     017F  2981               	goto	u2521
  5011     0180  2982               	goto	u2520
  5012     0181                     u2521:
  5013     0181  2983               	goto	l1865
  5014     0182                     u2520:
  5015     0182                     l1863:
  5016     0182  1474               	bsf	___fldiv@b,0
  5017     0183                     l1865:
  5018     0183  3001               	movlw	1
  5019     0184  00F8               	movwf	??___fldiv
  5020     0185                     u2535:
  5021     0185  1003               	clrc
  5022     0186  0DA7               	rlf	___fldiv@grs,f
  5023     0187  0DA8               	rlf	___fldiv@grs+1,f
  5024     0188  0DA9               	rlf	___fldiv@grs+2,f
  5025     0189  0DAA               	rlf	___fldiv@grs+3,f
  5026     018A  0BF8               	decfsz	??___fldiv,f
  5027     018B  2985               	goto	u2535
  5028     018C                     l1867:
  5029     018C  30FF               	movlw	255
  5030     018D  07A5               	addwf	___fldiv@new_exp,f
  5031     018E  1803               	skipnc
  5032     018F  0AA6               	incf	___fldiv@new_exp+1,f
  5033     0190  30FF               	movlw	255
  5034     0191  07A6               	addwf	___fldiv@new_exp+1,f
  5035     0192                     l1869:
  5036     0192  1FF6               	btfss	___fldiv@b+2,7
  5037     0193  2995               	goto	u2541
  5038     0194  2996               	goto	u2540
  5039     0195                     u2541:
  5040     0195  2975               	goto	l1859
  5041     0196                     u2540:
  5042     0196                     l1871:
  5043     0196  01AC               	clrf	___fldiv@aexp
  5044     0197                     l1873:
  5045     0197  1FAA               	btfss	___fldiv@grs+3,7
  5046     0198  299A               	goto	u2551
  5047     0199  299B               	goto	u2550
  5048     019A                     u2551:
  5049     019A  29B7               	goto	l1881
  5050     019B                     u2550:
  5051     019B                     l1875:
  5052     019B  30FF               	movlw	255
  5053     019C  0527               	andwf	___fldiv@grs,w
  5054     019D  00F8               	movwf	??___fldiv
  5055     019E  30FF               	movlw	255
  5056     019F  0528               	andwf	___fldiv@grs+1,w
  5057     01A0  00F9               	movwf	??___fldiv+1
  5058     01A1  30FF               	movlw	255
  5059     01A2  0529               	andwf	___fldiv@grs+2,w
  5060     01A3  00FA               	movwf	??___fldiv+2
  5061     01A4  307F               	movlw	127
  5062     01A5  052A               	andwf	___fldiv@grs+3,w
  5063     01A6  00FB               	movwf	??___fldiv+3
  5064     01A7  087B               	movf	??___fldiv+3,w
  5065     01A8  047A               	iorwf	??___fldiv+2,w
  5066     01A9  0479               	iorwf	??___fldiv+1,w
  5067     01AA  0478               	iorwf	??___fldiv,w
  5068     01AB  1903               	skipnz
  5069     01AC  29AE               	goto	u2561
  5070     01AD  29AF               	goto	u2560
  5071     01AE                     u2561:
  5072     01AE  29B2               	goto	l550
  5073     01AF                     u2560:
  5074     01AF                     l1877:
  5075     01AF  01AC               	clrf	___fldiv@aexp
  5076     01B0  0AAC               	incf	___fldiv@aexp,f
  5077     01B1  29B7               	goto	l1881
  5078     01B2                     l550:
  5079     01B2  1C74               	btfss	___fldiv@b,0
  5080     01B3  29B5               	goto	u2571
  5081     01B4  29B6               	goto	u2570
  5082     01B5                     u2571:
  5083     01B5  29B7               	goto	l1881
  5084     01B6                     u2570:
  5085     01B6  29AF               	goto	l1877
  5086     01B7                     l1881:
  5087     01B7  082C               	movf	___fldiv@aexp,w
  5088     01B8  1903               	btfsc	3,2
  5089     01B9  29BB               	goto	u2581
  5090     01BA  29BC               	goto	u2580
  5091     01BB                     u2581:
  5092     01BB  29ED               	goto	l1891
  5093     01BC                     u2580:
  5094     01BC                     l1883:
  5095     01BC  3001               	movlw	1
  5096     01BD  07F4               	addwf	___fldiv@b,f
  5097     01BE  3000               	movlw	0
  5098     01BF  1803               	skipnc
  5099     01C0  3001               	movlw	1
  5100     01C1  07F5               	addwf	___fldiv@b+1,f
  5101     01C2  3000               	movlw	0
  5102     01C3  1803               	skipnc
  5103     01C4  3001               	movlw	1
  5104     01C5  07F6               	addwf	___fldiv@b+2,f
  5105     01C6  3000               	movlw	0
  5106     01C7  1803               	skipnc
  5107     01C8  3001               	movlw	1
  5108     01C9  07F7               	addwf	___fldiv@b+3,f
  5109     01CA                     l1885:
  5110     01CA  1C77               	btfss	___fldiv@b+3,0
  5111     01CB  29CD               	goto	u2591
  5112     01CC  29CE               	goto	u2590
  5113     01CD                     u2591:
  5114     01CD  29ED               	goto	l1891
  5115     01CE                     u2590:
  5116     01CE                     l1887:
  5117     01CE  0874               	movf	___fldiv@b,w
  5118     01CF  00F8               	movwf	??___fldiv
  5119     01D0  0875               	movf	___fldiv@b+1,w
  5120     01D1  00F9               	movwf	??___fldiv+1
  5121     01D2  0876               	movf	___fldiv@b+2,w
  5122     01D3  00FA               	movwf	??___fldiv+2
  5123     01D4  0877               	movf	___fldiv@b+3,w
  5124     01D5  00FB               	movwf	??___fldiv+3
  5125     01D6  3001               	movlw	1
  5126     01D7  00FC               	movwf	??___fldiv+4
  5127     01D8                     u2605:
  5128     01D8  0D7B               	rlf	??___fldiv+3,w
  5129     01D9  0CFB               	rrf	??___fldiv+3,f
  5130     01DA  0CFA               	rrf	??___fldiv+2,f
  5131     01DB  0CF9               	rrf	??___fldiv+1,f
  5132     01DC  0CF8               	rrf	??___fldiv,f
  5133     01DD                     u2600:
  5134     01DD  0BFC               	decfsz	??___fldiv+4,f
  5135     01DE  29D8               	goto	u2605
  5136     01DF  087B               	movf	??___fldiv+3,w
  5137     01E0  00F7               	movwf	___fldiv@b+3
  5138     01E1  087A               	movf	??___fldiv+2,w
  5139     01E2  00F6               	movwf	___fldiv@b+2
  5140     01E3  0879               	movf	??___fldiv+1,w
  5141     01E4  00F5               	movwf	___fldiv@b+1
  5142     01E5  0878               	movf	??___fldiv,w
  5143     01E6  00F4               	movwf	___fldiv@b
  5144     01E7                     l1889:
  5145     01E7  3001               	movlw	1
  5146     01E8  07A5               	addwf	___fldiv@new_exp,f
  5147     01E9  1803               	skipnc
  5148     01EA  0AA6               	incf	___fldiv@new_exp+1,f
  5149     01EB  3000               	movlw	0
  5150     01EC  07A6               	addwf	___fldiv@new_exp+1,f
  5151     01ED                     l1891:
  5152     01ED  0826               	movf	___fldiv@new_exp+1,w
  5153     01EE  3A80               	xorlw	128
  5154     01EF  00FF               	movwf	btemp+1
  5155     01F0  3080               	movlw	128
  5156     01F1  027F               	subwf	btemp+1,w
  5157     01F2  1D03               	skipz
  5158     01F3  29F6               	goto	u2615
  5159     01F4  30FF               	movlw	255
  5160     01F5  0225               	subwf	___fldiv@new_exp,w
  5161     01F6                     u2615:
  5162     01F6  1C03               	skipc
  5163     01F7  29F9               	goto	u2611
  5164     01F8  29FA               	goto	u2610
  5165     01F9                     u2611:
  5166     01F9  2A08               	goto	l1895
  5167     01FA                     u2610:
  5168     01FA                     l1893:
  5169     01FA  30FF               	movlw	255
  5170     01FB  1283               	bcf	3,5	;RP0=0, select bank0
  5171     01FC  1303               	bcf	3,6	;RP1=0, select bank0
  5172     01FD  00A5               	movwf	___fldiv@new_exp
  5173     01FE  3000               	movlw	0
  5174     01FF  00A6               	movwf	___fldiv@new_exp+1
  5175     0200  3000               	movlw	0
  5176     0201  00F7               	movwf	___fldiv@b+3
  5177     0202  3000               	movlw	0
  5178     0203  00F6               	movwf	___fldiv@b+2
  5179     0204  3000               	movlw	0
  5180     0205  00F5               	movwf	___fldiv@b+1
  5181     0206  3000               	movlw	0
  5182     0207  00F4               	movwf	___fldiv@b
  5183     0208                     l1895:
  5184     0208  1283               	bcf	3,5	;RP0=0, select bank0
  5185     0209  1303               	bcf	3,6	;RP1=0, select bank0
  5186     020A  0826               	movf	___fldiv@new_exp+1,w
  5187     020B  3A80               	xorlw	128
  5188     020C  00FF               	movwf	btemp+1
  5189     020D  3080               	movlw	128
  5190     020E  027F               	subwf	btemp+1,w
  5191     020F  1D03               	skipz
  5192     0210  2A13               	goto	u2625
  5193     0211  3001               	movlw	1
  5194     0212  0225               	subwf	___fldiv@new_exp,w
  5195     0213                     u2625:
  5196     0213  1803               	skipnc
  5197     0214  2A16               	goto	u2621
  5198     0215  2A17               	goto	u2620
  5199     0216                     u2621:
  5200     0216  2A24               	goto	l556
  5201     0217                     u2620:
  5202     0217                     l1897:
  5203     0217  1283               	bcf	3,5	;RP0=0, select bank0
  5204     0218  1303               	bcf	3,6	;RP1=0, select bank0
  5205     0219  01A5               	clrf	___fldiv@new_exp
  5206     021A  01A6               	clrf	___fldiv@new_exp+1
  5207     021B                     l1899:
  5208     021B  3000               	movlw	0
  5209     021C  00F7               	movwf	___fldiv@b+3
  5210     021D  3000               	movlw	0
  5211     021E  00F6               	movwf	___fldiv@b+2
  5212     021F  3000               	movlw	0
  5213     0220  00F5               	movwf	___fldiv@b+1
  5214     0221  3000               	movlw	0
  5215     0222  00F4               	movwf	___fldiv@b
  5216     0223                     l1901:
  5217     0223  01A4               	clrf	___fldiv@sign
  5218     0224                     l556:
  5219     0224  1283               	bcf	3,5	;RP0=0, select bank0
  5220     0225  1303               	bcf	3,6	;RP1=0, select bank0
  5221     0226  0825               	movf	___fldiv@new_exp,w
  5222     0227  00AB               	movwf	___fldiv@bexp
  5223     0228                     l1903:
  5224     0228  1C2B               	btfss	___fldiv@bexp,0
  5225     0229  2A2B               	goto	u2631
  5226     022A  2A2C               	goto	u2630
  5227     022B                     u2631:
  5228     022B  2A2E               	goto	l1907
  5229     022C                     u2630:
  5230     022C                     l1905:
  5231     022C  17F6               	bsf	___fldiv@b+2,7
  5232     022D  2A32               	goto	l1909
  5233     022E                     l1907:
  5234     022E  307F               	movlw	127
  5235     022F  00FF               	movwf	btemp+1
  5236     0230  087F               	movf	btemp+1,w
  5237     0231  05F6               	andwf	___fldiv@b+2,f
  5238     0232                     l1909:
  5239     0232  082B               	movf	___fldiv@bexp,w
  5240     0233  00F8               	movwf	??___fldiv
  5241     0234  1003               	clrc
  5242     0235  0C78               	rrf	??___fldiv,w
  5243     0236  00F7               	movwf	___fldiv@b+3
  5244     0237  28CE               	goto	l1813
  5245     0238                     l536:
  5246     0238  0008               	return
  5247     0239                     __end_of___fldiv:
  5248                           
  5249                           	psect	text13
  5250     0999                     __ptext13:	
  5251 ;; *************** function _LCD_data *****************
  5252 ;; Defined at:
  5253 ;;		line 155 in file "LCD_batt.c"
  5254 ;; Parameters:    Size  Location     Type
  5255 ;;  hex             1    wreg     unsigned char 
  5256 ;; Auto vars:     Size  Location     Type
  5257 ;;  hex             1    2[COMMON] unsigned char 
  5258 ;; Return value:  Size  Location     Type
  5259 ;;                  1    wreg      void 
  5260 ;; Registers used:
  5261 ;;		wreg, status,2, status,0, btemp+1
  5262 ;; Tracked objects:
  5263 ;;		On entry : 0/0
  5264 ;;		On exit  : 0/0
  5265 ;;		Unchanged: 0/0
  5266 ;; Data sizes:     COMMON   BANK0   BANK1   BANK3   BANK2
  5267 ;;      Params:         0       0       0       0       0
  5268 ;;      Locals:         1       0       0       0       0
  5269 ;;      Temps:          2       0       0       0       0
  5270 ;;      Totals:         3       0       0       0       0
  5271 ;;Total ram usage:        3 bytes
  5272 ;; Hardware stack levels used: 1
  5273 ;; This function calls:
  5274 ;;		Nothing
  5275 ;; This function is called by:
  5276 ;;		_keyscane
  5277 ;;		_batt_msg
  5278 ;;		_LCD_output
  5279 ;; This function uses a non-reentrant model
  5280 ;;
  5281                           
  5282     0999                     _LCD_data:	
  5283                           ;psect for function _LCD_data
  5284                           
  5285                           
  5286                           ;incstack = 0
  5287                           ; Regs used in _LCD_data: [wreg+status,2+status,0+btemp+1]
  5288                           ;LCD_data@hex stored from wreg
  5289     0999  00F2               	movwf	LCD_data@hex
  5290     099A                     l1683:
  5291                           
  5292                           ;LCD_batt.c: 156:     PORTC |= 0x08;
  5293     099A  1283               	bcf	3,5	;RP0=0, select bank0
  5294     099B  1303               	bcf	3,6	;RP1=0, select bank0
  5295     099C  1587               	bsf	7,3	;volatile
  5296     099D                     l1685:
  5297                           
  5298                           ;LCD_batt.c: 157:     PORTD = hex;
  5299     099D  0872               	movf	LCD_data@hex,w
  5300     099E  0088               	movwf	8	;volatile
  5301     099F                     l1687:
  5302                           
  5303                           ;LCD_batt.c: 158:     PORTC |= 0x01;
  5304     099F  1407               	bsf	7,0	;volatile
  5305     09A0                     l1689:
  5306                           
  5307                           ;LCD_batt.c: 159:     PORTC &= ~0x01;
  5308     09A0  30FE               	movlw	254
  5309     09A1  00FF               	movwf	btemp+1
  5310     09A2  087F               	movf	btemp+1,w
  5311     09A3  0587               	andwf	7,f	;volatile
  5312     09A4                     l1691:
  5313                           
  5314                           ;LCD_batt.c: 160:     _delay((unsigned long)((100)*(6000000/4000.0)));
  5315     09A4  30C3               	movlw	195
  5316     09A5  00F1               	movwf	??_LCD_data+1
  5317     09A6  30CD               	movlw	205
  5318     09A7  00F0               	movwf	??_LCD_data
  5319     09A8                     u3277:
  5320     09A8  0BF0               	decfsz	??_LCD_data,f
  5321     09A9  29A8               	goto	u3277
  5322     09AA  0BF1               	decfsz	??_LCD_data+1,f
  5323     09AB  29A8               	goto	u3277
  5324     09AC                     l91:
  5325     09AC  0008               	return
  5326     09AD                     __end_of_LCD_data:
  5327                           
  5328                           	psect	text14
  5329     0A1D                     __ptext14:	
  5330 ;; *************** function _LCD_PIC_init *****************
  5331 ;; Defined at:
  5332 ;;		line 117 in file "LCD_batt.c"
  5333 ;; Parameters:    Size  Location     Type
  5334 ;;		None
  5335 ;; Auto vars:     Size  Location     Type
  5336 ;;		None
  5337 ;; Return value:  Size  Location     Type
  5338 ;;                  1    wreg      void 
  5339 ;; Registers used:
  5340 ;;		wreg, status,2, status,0, btemp+1, pclath, cstack
  5341 ;; Tracked objects:
  5342 ;;		On entry : 0/0
  5343 ;;		On exit  : 0/0
  5344 ;;		Unchanged: 0/0
  5345 ;; Data sizes:     COMMON   BANK0   BANK1   BANK3   BANK2
  5346 ;;      Params:         0       0       0       0       0
  5347 ;;      Locals:         0       0       0       0       0
  5348 ;;      Temps:          2       0       0       0       0
  5349 ;;      Totals:         2       0       0       0       0
  5350 ;;Total ram usage:        2 bytes
  5351 ;; Hardware stack levels used: 1
  5352 ;; Hardware stack levels required when called: 1
  5353 ;; This function calls:
  5354 ;;		_LCD_command
  5355 ;; This function is called by:
  5356 ;;		_main
  5357 ;; This function uses a non-reentrant model
  5358 ;;
  5359                           
  5360     0A1D                     _LCD_PIC_init:	
  5361                           ;psect for function _LCD_PIC_init
  5362                           
  5363     0A1D                     l2163:	
  5364                           ;incstack = 0
  5365                           ; Regs used in _LCD_PIC_init: [wreg+status,2+status,0+btemp+1+pclath+cstack]
  5366                           
  5367                           
  5368                           ;LCD_batt.c: 119:     TRISB = 0xF0;
  5369     0A1D  30F0               	movlw	240
  5370     0A1E  1683               	bsf	3,5	;RP0=1, select bank1
  5371     0A1F  1303               	bcf	3,6	;RP1=0, select bank1
  5372     0A20  0086               	movwf	6	;volatile
  5373     0A21                     l2165:
  5374                           
  5375                           ;LCD_batt.c: 120:     TRISC = 0x00;
  5376     0A21  0187               	clrf	7	;volatile
  5377     0A22                     l2167:
  5378                           
  5379                           ;LCD_batt.c: 121:     TRISD = 0x00;
  5380     0A22  0188               	clrf	8	;volatile
  5381     0A23                     l2169:
  5382                           
  5383                           ;LCD_batt.c: 124:     LCD_command(0x30);
  5384     0A23  3030               	movlw	48
  5385     0A24  120A  118A  200D  120A  158A  	fcall	_LCD_command
  5386     0A29                     l2171:
  5387                           
  5388                           ;LCD_batt.c: 125:     _delay((unsigned long)((100)*(6000000/4000.0)));
  5389     0A29  30C3               	movlw	195
  5390     0A2A  00F4               	movwf	??_LCD_PIC_init+1
  5391     0A2B  30CD               	movlw	205
  5392     0A2C  00F3               	movwf	??_LCD_PIC_init
  5393     0A2D                     u3287:
  5394     0A2D  0BF3               	decfsz	??_LCD_PIC_init,f
  5395     0A2E  2A2D               	goto	u3287
  5396     0A2F  0BF4               	decfsz	??_LCD_PIC_init+1,f
  5397     0A30  2A2D               	goto	u3287
  5398                           
  5399                           ;LCD_batt.c: 126:     LCD_command(0x30);
  5400     0A31  3030               	movlw	48
  5401     0A32  120A  118A  200D  120A  158A  	fcall	_LCD_command
  5402     0A37                     l2173:
  5403                           
  5404                           ;LCD_batt.c: 127:     _delay((unsigned long)((100)*(6000000/4000.0)));
  5405     0A37  30C3               	movlw	195
  5406     0A38  00F4               	movwf	??_LCD_PIC_init+1
  5407     0A39  30CD               	movlw	205
  5408     0A3A  00F3               	movwf	??_LCD_PIC_init
  5409     0A3B                     u3297:
  5410     0A3B  0BF3               	decfsz	??_LCD_PIC_init,f
  5411     0A3C  2A3B               	goto	u3297
  5412     0A3D  0BF4               	decfsz	??_LCD_PIC_init+1,f
  5413     0A3E  2A3B               	goto	u3297
  5414     0A3F                     l2175:
  5415                           
  5416                           ;LCD_batt.c: 128:     LCD_command(0x30);
  5417     0A3F  3030               	movlw	48
  5418     0A40  120A  118A  200D  120A  158A  	fcall	_LCD_command
  5419                           
  5420                           ;LCD_batt.c: 129:     _delay((unsigned long)((100)*(6000000/4000.0)));
  5421     0A45  30C3               	movlw	195
  5422     0A46  00F4               	movwf	??_LCD_PIC_init+1
  5423     0A47  30CD               	movlw	205
  5424     0A48  00F3               	movwf	??_LCD_PIC_init
  5425     0A49                     u3307:
  5426     0A49  0BF3               	decfsz	??_LCD_PIC_init,f
  5427     0A4A  2A49               	goto	u3307
  5428     0A4B  0BF4               	decfsz	??_LCD_PIC_init+1,f
  5429     0A4C  2A49               	goto	u3307
  5430     0A4D                     l2177:
  5431                           
  5432                           ;LCD_batt.c: 130:     LCD_command(0x38);
  5433     0A4D  3038               	movlw	56
  5434     0A4E  120A  118A  200D  120A  158A  	fcall	_LCD_command
  5435     0A53                     l2179:
  5436                           
  5437                           ;LCD_batt.c: 131:     _delay((unsigned long)((100)*(6000000/4000.0)));
  5438     0A53  30C3               	movlw	195
  5439     0A54  00F4               	movwf	??_LCD_PIC_init+1
  5440     0A55  30CD               	movlw	205
  5441     0A56  00F3               	movwf	??_LCD_PIC_init
  5442     0A57                     u3317:
  5443     0A57  0BF3               	decfsz	??_LCD_PIC_init,f
  5444     0A58  2A57               	goto	u3317
  5445     0A59  0BF4               	decfsz	??_LCD_PIC_init+1,f
  5446     0A5A  2A57               	goto	u3317
  5447                           
  5448                           ;LCD_batt.c: 132:     LCD_command(0x08);
  5449     0A5B  3008               	movlw	8
  5450     0A5C  120A  118A  200D  120A  158A  	fcall	_LCD_command
  5451     0A61                     l2181:
  5452                           
  5453                           ;LCD_batt.c: 133:     _delay((unsigned long)((100)*(6000000/4000.0)));
  5454     0A61  30C3               	movlw	195
  5455     0A62  00F4               	movwf	??_LCD_PIC_init+1
  5456     0A63  30CD               	movlw	205
  5457     0A64  00F3               	movwf	??_LCD_PIC_init
  5458     0A65                     u3327:
  5459     0A65  0BF3               	decfsz	??_LCD_PIC_init,f
  5460     0A66  2A65               	goto	u3327
  5461     0A67  0BF4               	decfsz	??_LCD_PIC_init+1,f
  5462     0A68  2A65               	goto	u3327
  5463     0A69                     l2183:
  5464                           
  5465                           ;LCD_batt.c: 134:     LCD_command(0x01);
  5466     0A69  3001               	movlw	1
  5467     0A6A  120A  118A  200D  120A  158A  	fcall	_LCD_command
  5468                           
  5469                           ;LCD_batt.c: 135:     _delay((unsigned long)((100)*(6000000/4000.0)));
  5470     0A6F  30C3               	movlw	195
  5471     0A70  00F4               	movwf	??_LCD_PIC_init+1
  5472     0A71  30CD               	movlw	205
  5473     0A72  00F3               	movwf	??_LCD_PIC_init
  5474     0A73                     u3337:
  5475     0A73  0BF3               	decfsz	??_LCD_PIC_init,f
  5476     0A74  2A73               	goto	u3337
  5477     0A75  0BF4               	decfsz	??_LCD_PIC_init+1,f
  5478     0A76  2A73               	goto	u3337
  5479     0A77                     l2185:
  5480                           
  5481                           ;LCD_batt.c: 136:     LCD_command(0x06);
  5482     0A77  3006               	movlw	6
  5483     0A78  120A  118A  200D  120A  158A  	fcall	_LCD_command
  5484     0A7D                     l2187:
  5485                           
  5486                           ;LCD_batt.c: 137:     _delay((unsigned long)((100)*(6000000/4000.0)));
  5487     0A7D  30C3               	movlw	195
  5488     0A7E  00F4               	movwf	??_LCD_PIC_init+1
  5489     0A7F  30CD               	movlw	205
  5490     0A80  00F3               	movwf	??_LCD_PIC_init
  5491     0A81                     u3347:
  5492     0A81  0BF3               	decfsz	??_LCD_PIC_init,f
  5493     0A82  2A81               	goto	u3347
  5494     0A83  0BF4               	decfsz	??_LCD_PIC_init+1,f
  5495     0A84  2A81               	goto	u3347
  5496                           
  5497                           ;LCD_batt.c: 138:     LCD_command(0x0E);
  5498     0A85  300E               	movlw	14
  5499     0A86  120A  118A  200D  120A  158A  	fcall	_LCD_command
  5500     0A8B                     l2189:
  5501                           
  5502                           ;LCD_batt.c: 139:     _delay((unsigned long)((100)*(6000000/4000.0)));
  5503     0A8B  30C3               	movlw	195
  5504     0A8C  00F4               	movwf	??_LCD_PIC_init+1
  5505     0A8D  30CD               	movlw	205
  5506     0A8E  00F3               	movwf	??_LCD_PIC_init
  5507     0A8F                     u3357:
  5508     0A8F  0BF3               	decfsz	??_LCD_PIC_init,f
  5509     0A90  2A8F               	goto	u3357
  5510     0A91  0BF4               	decfsz	??_LCD_PIC_init+1,f
  5511     0A92  2A8F               	goto	u3357
  5512     0A93                     l85:
  5513     0A93  0008               	return
  5514     0A94                     __end_of_LCD_PIC_init:
  5515                           
  5516                           	psect	text15
  5517     000D                     __ptext15:	
  5518 ;; *************** function _LCD_command *****************
  5519 ;; Defined at:
  5520 ;;		line 144 in file "LCD_batt.c"
  5521 ;; Parameters:    Size  Location     Type
  5522 ;;  hex             1    wreg     unsigned char 
  5523 ;; Auto vars:     Size  Location     Type
  5524 ;;  hex             1    2[COMMON] unsigned char 
  5525 ;; Return value:  Size  Location     Type
  5526 ;;                  1    wreg      void 
  5527 ;; Registers used:
  5528 ;;		wreg, status,2, status,0, btemp+1
  5529 ;; Tracked objects:
  5530 ;;		On entry : 0/0
  5531 ;;		On exit  : 0/0
  5532 ;;		Unchanged: 0/0
  5533 ;; Data sizes:     COMMON   BANK0   BANK1   BANK3   BANK2
  5534 ;;      Params:         0       0       0       0       0
  5535 ;;      Locals:         1       0       0       0       0
  5536 ;;      Temps:          2       0       0       0       0
  5537 ;;      Totals:         3       0       0       0       0
  5538 ;;Total ram usage:        3 bytes
  5539 ;; Hardware stack levels used: 1
  5540 ;; This function calls:
  5541 ;;		Nothing
  5542 ;; This function is called by:
  5543 ;;		_keyscane
  5544 ;;		_batt_msg
  5545 ;;		_LCD_output
  5546 ;;		_LCD_PIC_init
  5547 ;; This function uses a non-reentrant model
  5548 ;;
  5549                           
  5550     000D                     _LCD_command:	
  5551                           ;psect for function _LCD_command
  5552                           
  5553                           
  5554                           ;incstack = 0
  5555                           ; Regs used in _LCD_command: [wreg+status,2+status,0+btemp+1]
  5556                           ;LCD_command@hex stored from wreg
  5557     000D  00F2               	movwf	LCD_command@hex
  5558     000E                     l1675:
  5559                           
  5560                           ;LCD_batt.c: 145:     PORTC &= 0xF7;
  5561     000E  30F7               	movlw	247
  5562     000F  00FF               	movwf	btemp+1
  5563     0010  087F               	movf	btemp+1,w
  5564     0011  1283               	bcf	3,5	;RP0=0, select bank0
  5565     0012  1303               	bcf	3,6	;RP1=0, select bank0
  5566     0013  0587               	andwf	7,f	;volatile
  5567     0014                     l1677:
  5568                           
  5569                           ;LCD_batt.c: 146:     PORTD = hex;
  5570     0014  0872               	movf	LCD_command@hex,w
  5571     0015  0088               	movwf	8	;volatile
  5572     0016                     l1679:
  5573                           
  5574                           ;LCD_batt.c: 147:     PORTC |= 0x01;
  5575     0016  1407               	bsf	7,0	;volatile
  5576     0017                     l1681:
  5577                           
  5578                           ;LCD_batt.c: 148:     PORTC &= ~0x01;
  5579     0017  30FE               	movlw	254
  5580     0018  00FF               	movwf	btemp+1
  5581     0019  087F               	movf	btemp+1,w
  5582     001A  0587               	andwf	7,f	;volatile
  5583                           
  5584                           ;LCD_batt.c: 149:     _delay((unsigned long)((100)*(6000000/4000.0)));
  5585     001B  30C3               	movlw	195
  5586     001C  00F1               	movwf	??_LCD_command+1
  5587     001D  30CD               	movlw	205
  5588     001E  00F0               	movwf	??_LCD_command
  5589     001F                     u3367:
  5590     001F  0BF0               	decfsz	??_LCD_command,f
  5591     0020  281F               	goto	u3367
  5592     0021  0BF1               	decfsz	??_LCD_command+1,f
  5593     0022  281F               	goto	u3367
  5594     0023                     l88:
  5595     0023  0008               	return
  5596     0024                     __end_of_LCD_command:
  5597     007E                     btemp	set	126	;btemp
  5598     007E                     wtemp0	set	126
  5599                           
  5600                           	psect	config
  5601                           
  5602                           ;Config register CONFIG @ 0x2007
  5603                           ;	Oscillator Selection bits
  5604                           ;	FOSC = EXTRC, RC oscillator
  5605                           ;	Watchdog Timer Enable bit
  5606                           ;	WDTE = OFF, WDT disabled
  5607                           ;	Power-up Timer Enable bit
  5608                           ;	PWRTE = OFF, PWRT disabled
  5609                           ;	Brown-out Reset Enable bit
  5610                           ;	BOREN = OFF, BOR disabled
  5611                           ;	Low-Voltage (Single-Supply) In-Circuit Serial Programming Enable bit
  5612                           ;	LVP = OFF, RB3 is digital I/O, HV on MCLR must be used for programming
  5613                           ;	Data EEPROM Memory Code Protection bit
  5614                           ;	CPD = OFF, Data EEPROM code protection off
  5615                           ;	Flash Program Memory Write Enable bits
  5616                           ;	WRT = OFF, Write protection off; all program memory may be written to by EECON control
  5617                           ;	In-Circuit Debugger Mode bit
  5618                           ;	DEBUG = 0x1, unprogrammed default
  5619                           ;	Flash Program Memory Code Protection bit
  5620                           ;	CP = OFF, Code protection off
  5621     2007                     	org	8199
  5622     2007  3F3B               	dw	16187

Data Sizes:
    Strings     0
    Constant    0
    Data        64
    BSS         8
    Persistent  0
    Stack       0

Auto Spaces:
    Space          Size  Autos    Used
    COMMON           14     14      14
    BANK0            80     79      80
    BANK1            80      4      75
    BANK3            96      0       0
    BANK2            96      0       0

Pointer List with Targets:

    None.

Critical Paths under _main in COMMON

    _main->_keyscane
    _batt_msg->___flge
    _LCD_output->___fldiv
    ___fltol->___fldiv
    _LCD_PIC_init->_LCD_command

Critical Paths under _main in BANK0

    _main->_keyscane
    _keyscane->_LCD_output
    _LCD_output->___flmul
    ___xxtofl->___fltol
    ___fltol->___fldiv
    ___flsub->___xxtofl
    ___flmul->___flsub

Critical Paths under _main in BANK1

    _keyscane->_LCD_output

Critical Paths under _main in BANK3

    None.

Critical Paths under _main in BANK2

    None.

Call Graph Tables:

 ---------------------------------------------------------------------------------
 (Depth) Function   	        Calls       Base Space   Used Autos Params    Refs
 ---------------------------------------------------------------------------------
 (0) _main                                                 0     0      0   16444
                       _LCD_PIC_init
                           _keyscane
 ---------------------------------------------------------------------------------
 (1) _keyscane                                             3     3      0   16422
                                             13 COMMON     1     1      0
                                             77 BANK0      2     2      0
                        _LCD_command
                           _LCD_data
                         _LCD_output
                            ___fladd
                             ___flge
                            ___flsub
                           _batt_msg
 ---------------------------------------------------------------------------------
 (2) _batt_msg                                             3     3      0    1646
                                              0 BANK0      3     3      0
                        _LCD_command
                           _LCD_data
                             ___flge
 ---------------------------------------------------------------------------------
 (3) ___flge                                              12     4      8    1398
                                              0 COMMON    12     4      8
 ---------------------------------------------------------------------------------
 (2) _LCD_output                                          10     6      4    8189
                                             71 BANK0      6     2      4
                                              0 BANK1      4     4      0
                        _LCD_command
                           _LCD_data
                            ___fldiv
                            ___flmul
                            ___flsub
                            ___fltol
                             ___wmul
                           ___xxtofl
 ---------------------------------------------------------------------------------
 (3) ___xxtofl                                            14    10      4     474
                                             23 BANK0     14    10      4
                            ___fltol (ARG)
                             ___wmul (ARG)
 ---------------------------------------------------------------------------------
 (3) ___wmul                                               6     2      4     244
                                              0 COMMON     6     2      4
 ---------------------------------------------------------------------------------
 (3) ___fltol                                             10     6      4     533
                                             13 BANK0     10     6      4
                          __Umul8_16 (ARG)
                            ___fladd (ARG)
                            ___fldiv (ARG)
                             ___wmul (ARG)
 ---------------------------------------------------------------------------------
 (2) ___flsub                                              8     0      8    2789
                                             37 BANK0      8     0      8
                            ___fladd
                            ___fltol (ARG)
                             ___wmul (ARG)
                           ___xxtofl (ARG)
 ---------------------------------------------------------------------------------
 (3) ___fladd                                             20    12      8    2288
                                              0 COMMON    12     4      8
                                              0 BANK0      8     8      0
 ---------------------------------------------------------------------------------
 (3) ___flmul                                             26    18      8    2417
                                             45 BANK0     26    18      8
                          __Umul8_16
                            ___flsub (ARG)
                            ___fltol (ARG)
                           ___xxtofl (ARG)
 ---------------------------------------------------------------------------------
 (4) __Umul8_16                                            9     7      2     799
                                              0 COMMON     9     7      2
 ---------------------------------------------------------------------------------
 (3) ___fldiv                                             26    18      8    1273
                                              0 COMMON    13     5      8
                                              0 BANK0     13    13      0
 ---------------------------------------------------------------------------------
 (3) _LCD_data                                             3     3      0      22
                                              0 COMMON     3     3      0
 ---------------------------------------------------------------------------------
 (1) _LCD_PIC_init                                         2     2      0      22
                                              3 COMMON     2     2      0
                        _LCD_command
 ---------------------------------------------------------------------------------
 (3) _LCD_command                                          3     3      0      22
                                              0 COMMON     3     3      0
 ---------------------------------------------------------------------------------
 Estimated maximum stack depth 4
 ---------------------------------------------------------------------------------

 Call Graph Graphs:

 _main (ROOT)
   _LCD_PIC_init
     _LCD_command
   _keyscane
     _LCD_command
     _LCD_data
     _LCD_output
       _LCD_command
       _LCD_data
       ___fldiv
       ___flmul
         __Umul8_16
         ___flsub (ARG)
           ___fladd
           ___fltol (ARG)
             __Umul8_16 (ARG)
             ___fladd (ARG)
             ___fldiv (ARG)
             ___wmul (ARG)
           ___wmul (ARG)
           ___xxtofl (ARG)
             ___fltol (ARG)
             ___wmul (ARG)
         ___fltol (ARG)
         ___xxtofl (ARG)
       ___flsub
       ___fltol
       ___wmul
       ___xxtofl
     ___fladd
     ___flge
     ___flsub
     _batt_msg
       _LCD_command
       _LCD_data
       ___flge

 Address spaces:
Name               Size   Autos  Total    Cost      Usage
BANK3               60      0       0       9        0.0%
BITBANK3            60      0       0       8        0.0%
SFR3                 0      0       0       4        0.0%
BITSFR3              0      0       0       4        0.0%
BANK2               60      0       0      11        0.0%
BITBANK2            60      0       0      10        0.0%
SFR2                 0      0       0       5        0.0%
BITSFR2              0      0       0       5        0.0%
BANK1               50      4      4B       7       93.8%
BITBANK1            50      0       0       6        0.0%
SFR1                 0      0       0       2        0.0%
BITSFR1              0      0       0       2        0.0%
BANK0               50     4F      50       5      100.0%
BITBANK0            50      0       0       4        0.0%
SFR0                 0      0       0       1        0.0%
BITSFR0              0      0       0       1        0.0%
COMMON               E      E       E       1      100.0%
BITCOMMON            E      0       0       0        0.0%
CODE                 0      0       0       0        0.0%
DATA                 0      0      A9      12        0.0%
ABS                  0      0      A9       3        0.0%
NULL                 0      0       0       0        0.0%
STACK                0      0       0       2        0.0%
EEDATA             100      0       0       0        0.0%


Microchip Technology PIC Macro Assembler V2.45 build 20230818022343 
Symbol Table                                                                                   Wed Jan 03 02:57:21 2024

           ___fldiv@aexp 002C             ___fldiv@bexp 002B                        pc 0002  
           ___fldiv@sign 0024                       l73 0D69                       l82 0EA1  
                     l91 09AC                       l59 0FFF                       l85 0A93  
                     l88 0023                       _d0 00E4                       _d1 00E5  
                     _d2 006F                       fsr 0004      ___wmul@multiplicand 0072  
    __Umul8_16@word_mpld 0076                      l503 040C                      l521 049C  
                    l177 09DD                      l371 0B0B                      l179 09F5  
                    l363 0BAD                      l355 0B28                      l524 09D0  
                    l620 0C67                      l509 042E                      l381 0B0B  
                    l550 01B2                      l534 00BA                      l358 0B94  
                    l631 0C31                      l536 0238                      l632 0C3D  
                    l482 0317                      l378 0AF6                      l618 0BD2  
                    l491 049C                      l556 0224                      l580 0751  
                    l484 02EE                      l574 07E1                      l478 0294  
                    l593 0A0A                      l595 0A1C                      l499 03E6  
                    fsr0 0004                      indf 0000              ?_LCD_output 0067  
           ___flmul@aexp 005F             ___flmul@bexp 0060             ___flmul@sign 005A  
           ___flmul@temp 0065             ___flmul@prod 0061             ___fltol@exp1 0036  
                   l2001 0706                     l2011 072B                     l2003 0714  
                   l2021 074E                     l2005 071D                     l2013 0731  
                   l2101 0C5E                     l2031 076D                     l2015 0735  
                   l2007 0721                     l2103 0C5F                     l2111 0C83  
                   l2041 07B3                     l2033 0786                     l2025 0756  
                   l2017 0736                     l2009 0722                     l2121 0CA7  
                   l2113 0C9E                     l2201 0EB1                     l2051 07D0  
                   l2043 07BD                     l2027 075B                     l2035 078C  
                   l2019 073A                     l2107 0D6A                     l2131 0CF4  
                   l2123 0CB1                     l2115 0CA4                     l2211 0EEA  
                   l2203 0EBB                     l2045 07BF                     l2053 07D5  
                   l2037 0799                     l2029 0769                     l1501 028A  
                   l2061 0BB6                     l2141 0D07                     l2133 0CFA  
                   l2125 0CB7                     l2109 0C68                     l2221 0F3C  
                   l2213 0EF2                     l2205 0EBF                     l2055 07D9  
                   l2047 07CB                     l2039 07A4                     l1511 02A4  
                   l1503 028C                     l2071 0BE3                     l2063 0BBA  
                   l2151 0D50                     l2143 0D0D                     l2127 0CBE  
                   l2215 0EF8                     l2207 0EC5                     l2049 07CF  
                   l1521 02AE                     l1513 02A6                     l1505 029A  
                   l2081 0BFE                     l2073 0BE6                     l2065 0BCA  
                   l2161 0D63                     l2129 0CD9                     l2145 0D14  
                   l2225 0F5A                     l2217 0F19                     l2209 0ECF  
                   l2171 0A29                     l2163 0A1D                     l1611 0413  
                   l1603 03FC                     l1531 02B8                     l1523 02B0  
                   l1515 02A8                     l1507 029E                     l2091 0C2B  
                   l2083 0C0C                     l2075 0BEA                     l2067 0BDA  
                   l2059 0BB1                     l2147 0D2F                     l2139 0CFD  
                   l2235 0FBB                     l2227 0F97                     l2219 0F32  
                   l2251 0978                     l2181 0A61                     l2173 0A37  
                   l2165 0A21                     l1621 0421                     l1613 0415  
                   l1605 0407                     l1541 02C1                     l1533 02BA  
                   l1525 02B2                     l1517 02AA                     l1509 02A2  
                   l1461 0239                     l1701 09EB                     l2093 0C35  
                   l2085 0C15                     l2077 0BF3                     l2157 0D53  
                   l2149 0D4A                     l2237 0FC5                     l2229 0FB0  
                   l2245 0FE7                     l2253 097D                     l2183 0A69  
                   l2175 0A3F                     l2167 0A22                     l1631 0438  
                   l1623 0425                     l1615 041A                     l1607 040B  
                   l1551 0301                     l1543 02D8                     l1535 02BC  
                   l1527 02B4                     l1519 02AC                     l1471 024C  
                   l1463 023C                     l1703 09F1                     l2095 0C3F  
                   l2087 0C1C                     l2079 0BFA                     l1711 0B3C  
                   l2159 0D5D                     l2239 0FE0                     l2191 0EA2  
                   l2185 0A77                     l2177 0A4D                     l2169 0A23  
                   l1801 00A2                     l1641 0473                     l1633 0446  
                   l1625 042B                     l1609 0410                     l1617 041C  
                   l1561 0320                     l1553 0302                     l1545 02F2  
                   l1537 02BE                     l1529 02B6                     l1481 0264  
                   l1473 0251                     l1465 0242                     l2097 0C55  
                   l2089 0C27                     l1721 0BAA                     l1713 0B44  
                   l2193 0EAA                     l2187 0A7D                     l2179 0A53  
                   l1811 00C2                     l1803 00A7                     l1651 048A  
                   l1643 0478                     l1635 044A                     l1571 0348  
                   l1619 0420                     l1555 030D                     l1547 02FB  
                   l1539 02C0                     l1491 0276                     l1483 0267  
                   l1475 0259                     l1467 0246                     l2099 0C5A  
                   l1723 0BAC                     l1715 0B48                     l1707 0B0C  
                   l2275 0FF1                     l2195 0EB0                     l2189 0A8B  
                   l1901 0223                     l1821 00E0                     l1813 00CE  
                   l1805 00AF                     l1661 09F7                     l1653 048C  
                   l1645 0480                     l1637 046A                     l1629 0433  
                   l1581 0363                     l1573 0351                     l1565 0329  
                   l1549 02FD                     l1557 0311                     l1493 0277  
                   l1485 026D                     l1477 025A                     l1469 0247  
                   l1741 0AC6                     l1733 0AA8                     l1717 0B6C  
                   l1709 0B20                     l1903 0228                     l1831 010B  
                   l1815 00D2                     l1807 00B0                     l1671 0A18  
                   l1663 09F9                     l1655 0490                     l1647 0485  
                   l1639 046E                     l1591 03C4                     l1575 0353  
                   l1567 0340                     l1559 031B                     l1583 0368  
                   l1495 027C                     l1487 026E                     l1479 025C  
                   l1751 0ADB                     l1743 0ACA                     l1735 0ABB  
                   l1727 0A94                     l1719 0B70                     l1681 0017  
                   l1905 022C                     l1841 0130                     l1833 0113  
                   l1825 00E9                     l1809 00B2                     l1665 0A00  
                   l1921 04A6                     l1657 0497                     l1649 0486  
                   l1593 03C9                     l1585 037E                     l1577 0357  
                   l1569 0344                     l1497 0281                     l1489 0272  
                   l1761 0AFB                     l1753 0AE4                     l1737 0ABC  
                   l1729 0A9F                     l1675 000E                     l1691 09A4  
                   l1683 099A                     l1907 022E                     l1851 0161  
                   l1843 0131                     l1835 0115                     l1827 00FB  
                   l1819 00DB                     l1771 0064                     l1667 0A04  
                   l1931 04BD                     l1923 04AA                     l1659 049B  
                   l1587 03BE                     l1595 03D8                     l1579 0358  
                   l1499 0289                     l1763 0B00                     l1739 0AC4  
                   l1677 0014                     l1685 099D                     l1909 0232  
                   l1861 017E                     l1837 011A                     l1845 013A  
                   l1853 0165                     l1829 0103                     l1781 0077  
                   l1773 0069                     l1669 0A13                     l1941 04D4  
                   l1933 04BF                     l1925 04AB                     l1917 049D  
                   l1597 03EE                     l1589 03C2                     l1765 09AD  
                   l1749 0AD2                     l1693 09D1                     l1679 0016  
                   l1687 099F                     l1871 0196                     l1863 0182  
                   l1855 016B                     l1847 014C                     l1839 012C  
                   l1791 008F                     l1783 007C                     l1775 006D  
                   l1951 04E9                     l1943 04D5                     l1935 04C7  
                   l1927 04B0                     l1919 04A2                     l1599 03F3  
                   l1767 09B1                     l1759 0AEB                     l1695 09D3  
                   l1689 09A0                     l1881 01B7                     l1873 0197  
                   l1865 0183                     l1857 0173                     l1849 014D  
                   l1793 0094                     l1785 0084                     l1777 0071  
                   l1961 0504                     l1953 04F1                     l1945 04DA  
                   l1937 04CC                     l1929 04B5                     l1697 09D7  
                   l1883 01BC                     l1891 01ED                     l1875 019B  
                   l1867 018C                     l1859 0175                     l1795 0098  
                   l1787 0085                     l1779 0072                     l1971 0580  
                   l1963 0512                     l1955 04F6                     l1947 04DF  
                   l1939 04D0                     l1699 09E4                     l1893 01FA  
                   l1885 01CA                     l1877 01AF                     l1869 0192  
                   l1797 009C                     l1789 0087                     l1981 05EC  
                   l1973 059C                     l1965 051F                     l1957 04FB  
                   l1949 04E7                     l1895 0208                     l1887 01CE  
                   l1799 009D                     l1991 0676                     l1983 05FA  
                   l1975 05B8                     l1967 053A                     l1897 0217  
                   l1889 01E7                     l1993 0684                     l1985 0617  
                   l1977 05C1                     l1969 0556                     l1899 021B  
                   l1995 06AF                     l1987 062E                     l1979 05CF  
                   l1997 06D5                     l1989 064B                     l1999 06FD  
           ?_LCD_command 0070                     u2000 0432                     u2001 0431  
                   u2010 0438                     u2011 0437                     u2100 0A04  
                   u2020 044A                     u2101 0A03                     u2021 0449  
                   u2030 045B                     u2120 0A18                     u3000 07CF  
                   u2040 046A                     u2121 0A17                     u3001 07CE  
                   u2041 0469                     u2201 0B57                     u2050 0473  
                   u2130 09D7                     u3010 0BB6                     u2210 0B70  
                   u2202 0B58                     u2115 0A0B                     u2051 0472  
                   u2035 0456                     u2131 09D6                     u3011 0BB5  
                   u2211 0B6F                     u2203 0B5D                     u2060 0478  
                   u2300 0AEA                     u3100 0C31                     u3020 0BBA  
                   u2204 0B5E                     u2061 0477                     u2301 0AE9  
                   u3101 0C30                     u3021 0BB9                     u2221 0B7F  
                   u2205 0B63                     u2070 0485                     u3110 0C35  
                   u3030 0BDA                     u2230 0BAA                     u2222 0B80  
                   u2206 0B64                     u2071 0484                     u3111 0C34  
                   u3031 0BD9                     u2231 0BA9                     u2223 0B85  
                   u2400 00C2                     u2080 048A                     u2320 0AFB  
                   u2240 0A9F                     u2160 09F1                     u3120 0C4A  
                   u2224 0B86                     u3200 0D13                     u2401 00C1  
                   u2081 0489                     u2321 0AFA                     u2241 0A9E  
                   u2161 09F0                     u2145 09DE                     u2225 0B8B  
                   u3201 0D12                     u2410 00E0                     u2090 049B  
                   u2330 0B00                     u2250 0AB6                     u3130 0C5A  
                   u3050 0BF9                     u2226 0B8C                     u2170 0B20  
                   u3210 0D2F                     u2411 00DF                     u2091 049A  
                   u2331 0AFF                     u2315 0AED                     u2155 09E5  
                   u3131 0C59                     u3051 0BF8                     u2235 0BA6  
                   u2171 0B1F                     u3211 0D2E                     u2500 0173  
                   u2420 011A                     u2340 0071                     u1700 0281  
                   u2260 0ACA                     u3140 0C5E                     u2180 0B3C  
                   u3220 0D4A                     u2501 0172                     u2421 0119  
                   u2341 0070                     u1701 0280                     u2261 0AC9  
                   u3141 0C5D                     u3125 0C45                     u3045 0BEB  
                   u2181 0B3B                     u3221 0D49                     u2350 0077  
                   u1710 029A                     u2270 0AD1                     u3070 0C1B  
                   u2190 0B48                     u3230 0D69                     u3150 0C83  
                   u2351 0076                     u1711 0299                     u2271 0AD0  
                   u2255 0AB1                     u3071 0C1A                     u2191 0B47  
                   u3231 0D68                     u3151 0C82                     u2600 01DD  
                   u2520 0182                     u2360 007C                     u1800 031B  
                   u1720 029E                     u1640 0246                     u3160 0C9E  
                   u3240 0EC5                     u2521 0181                     u2361 007B  
                   u1801 031A                     u1721 029D                     u1641 0245  
                   u3065 0C0D                     u3161 0C9D                     u3241 0EC4  
                   u2610 01FA                     u2450 0130                     u2370 009C  
                   u1810 0320                     u1730 02D8                     u1650 024C  
                   u2290 0AE3                     u3090 0C2B                     u3170 0CBD  
                   u3250 0F32                     u3307 0A49                     u2611 01F9  
                   u2515 0177                     u2451 012F                     u2435 011C  
                   u2371 009B                     u1811 031F                     u1731 02D7  
                   u1651 024B                     u2291 0AE2                     u3091 0C2A  
                   u3171 0CBC                     u3251 0F31                     u2620 0217  
                   u2540 0196                     u2380 00A2                     u2700 04F6  
                   u1900 03C9                     u1740 02E1                     u1660 0251  
                   u3180 0CD9                     u3260 0FB0                     u3317 0A57  
                   u2621 0216                     u2605 01D8                     u2541 0195  
                   u2445 0125                     u2381 00A1                     u2701 04F5  
                   u1901 03C8                     u1821 0332                     u1741 02DF  
                   u1661 0250                     u2285 0AD3                     u3085 0C20  
                   u3181 0CD8                     u3261 0FAF                     u2630 022C  
                   u2550 019B                     u2470 014C                     u2390 00A7  
                   u2710 04FB                     u1910 03EE                     u1830 0344  
                   u1822 0339                     u1750 02E2                     u1670 026D  
                   u3190 0CF4                     u3327 0A65                     u2631 022B  
                   u2615 01F6                     u2551 019A                     u2535 0185  
                   u2471 014B                     u2391 00A6                     u2711 04FA  
                   u1911 03ED                     u1831 0343                     u1823 0340  
                   u1735 02D4                     u1671 026C                     u3191 0CF3  
                   u2560 01AF                     u2480 0161                     u2640 04AA  
                   u1920 03F3                     u1840 0348                     u1760 02F2  
                   u1680 0276                     u3337 0A73                     u2625 0213  
                   u2561 01AE                     u2465 0133                     u2801 063D  
                   u2721 0548                     u2641 04A9                     u1921 03F2  
                   u1841 0347                     u1761 02F1                     u1681 0275  
                   u2570 01B6                     u2490 016B                     u2802 0644  
                   u2722 054F                     u2650 04B0                     u1850 0357  
                   u1770 0301                     u1690 027C                     u3347 0A81  
                   u2571 01B5                     u2491 016A                     u2475 0148  
                   u2811 0668                     u2803 064B                     u2731 0564  
                   u2723 0556                     u2651 04AF                     u1851 0356  
                   u1771 0300                     u1691 027B                     u2580 01BC  
                   u2812 066F                     u2732 056B                     u2660 04B5  
                   u1940 040B                     u3357 0A8F                     u3277 09A8  
                   u2581 01BB                     u2485 0154                     u2821 0693  
                   u2813 0676                     u2741 058E                     u2733 0572  
                   u2661 04B4                     u1941 040A                     u2590 01CE  
                   u2486 0155                     u2910 0735                     u2830 06BB  
                   u2822 069A                     u2742 0595                     u2670 04D4  
                   u1950 0410                     u1870 037E                     u1790 0317  
                   u3367 001F                     u3287 0A2D                     u2591 01CD  
                   u2487 015A                     u2911 0734                     u2823 06A1  
                   u2751 05AA                     u2743 059C                     u2671 04D3  
                   u1951 040F                     u1935 0400                     u1871 037D  
                   u1791 0316                     u2488 015B                     u2920 073A  
                   u2752 05B1                     u2680 04DA                     u1960 041A  
                   u3297 0A3B                     u2489 0160                     u2921 0739  
                   u2905 0724                     u2841 06C7                     u2753 05B8  
                   u2681 04D9                     u1961 0419                     u1881 0397  
                   u1873 037A                     u1865 035C                     u1785 0306  
                   u2930 074E                     u2850 06E3                     u2842 06CE  
                   u2690 04DF                     u1970 0420                     u1890 03AB  
                   u1882 0398                     u2931 074D                     u2843 06D5  
                   u2835 06B6                     u2771 05DE                     u2691 04DE  
                   u1971 041F                     u1891 03AC                     u1883 039D  
                   u2940 0755                     u2772 05E5                     u1980 0425  
                   u1892 03B1                     u1884 039E                     u2941 0754  
                   u2861 06EF                     u2781 0609                     u2773 05EC  
                   u2765 05BA                     u1981 0424                     u1893 03B2  
                   u1885 03A3                     u2950 075B                     u2862 06F6  
                   u2782 0610                     u1990 042B                     u1886 03A4  
                   u2951 075A                     u2863 06FD                     u2855 06DE  
                   u2783 0617                     u1991 042A                     u2960 076D  
                   u2961 076C                     u2970 077C                     u2890 0721  
                   u2891 0720                     u2875 06FF                     u2795 0619  
                   u2980 0799                     u2981 0798                     u2885 0716  
                   u2990 07B3                     u2991 07B2                     u2975 0777  
                   u2985 0795                     u2995 07AF           ??_LCD_PIC_init 0073  
                   _main 0978                     btemp 007E                     start 0000  
        ___fldiv@new_exp 0025         __end_of_LCD_data 09AD            ___fltol@sign1 0035  
        __end_of___fladd 049D                    ?_main 0070          __end_of___fldiv 0239  
        __end_of___flmul 07E2          __end_of___flsub 09D1          __end_of___fltol 0B0C  
                  _PORTB 0006                    _PORTC 0007                    _PORTD 0008  
                  _TRISB 0086                    _TRISC 0087                    _TRISD 0088  
                  _array 00D0              LCD_data@hex 0072                    _value 00E6  
                  pclath 000A                    status 0003                    wtemp0 007E  
        __initialization 07E2             __end_of_main 0986                   ??_main 007E  
            LCD_output@i 0067         __end_of___xxtofl 0C68         __end_of_batt_msg 0D6A  
                 ___flge 0B0C                ??___fladd 0020                   ___wmul 09D1  
              ??___fldiv 0078                ??___flmul 0055                ??___flsub 007D  
              ??___fltol 0031         __end_of_keyscane 1000     __end_of_LCD_PIC_init 0A94  
             ___flge@ff1 0070               ___flge@ff2 0074             ___xxtofl@arg 0041  
           ___xxtofl@exp 0040             ___xxtofl@val 0037  __end_of__initialization 07FC  
              ?_LCD_data 0070               ___fltol@f1 002D           __pcstackCOMMON 0070  
           __pidataBANK1 0024             ??_LCD_output 006B               __pbssBANK0 006F  
             __pbssBANK1 00E0               ??_LCD_data 0070        __end_of__Umul8_16 0A1D  
             __pmaintext 0978                  ?___flge 0070                  ?___wmul 0070  
     __end_of_LCD_output 0EA2                ?___xxtofl 0037                ?_batt_msg 0070  
         _LCD_output$688 00E7                ?_keyscane 0070                _BATT_MSG1 00C0  
              _BATT_MSG2 00B0                _BATT_MSG3 00A0                  ___fladd 0239  
                ___fldiv 0064                  ___flmul 049D                  ___flsub 09AD  
                ___fltol 0A94                  __ptext1 0EA2                  __ptext2 0C68  
                __ptext3 0B0C                  __ptext4 0D6A                  __ptext5 0BAE  
                __ptext6 09D1                  __ptext7 0A94                  __ptext8 09AD  
                __ptext9 0239               ??___xxtofl 003B               ??_batt_msg 007C  
   end_of_initialization 07FC             _LCD_PIC_init 0A1D               ??_keyscane 006D  
            ___fladd@grs 007B            ___xxtofl@sign 003F              ___fldiv@grs 0027  
            ___fldiv@rem 0020              ___flmul@grs 005B           __end_of___flge 0BAE  
         __end_of___wmul 09F6      start_initialization 07E2            ??_LCD_command 0070  
               ??___flge 0078                 ??___wmul 0074               init_fetch0 0986  
              __Umul8_16 09F6              __pdataBANK1 00A0                ___fladd@a 0074  
              ___fladd@b 0070                ___fldiv@a 0070                ___fldiv@b 0074  
              ___flmul@a 0051                ___flmul@b 004D                ___flsub@a 0045  
              ___flsub@b 0049                ___latbits 0002            __pcstackBANK0 0020  
          __pcstackBANK1 00E7      __end_of_LCD_command 0024                 ?___fladd 0070  
               ?___fldiv 0070                 ?___flmul 004D                 ?___flsub 0045  
               ?___fltol 002D               ?__Umul8_16 0070                 _BATT_VAL 00E0  
              batt_msg@x 0020             batt_msg@x_76 0021             batt_msg@x_77 0022  
         ___wmul@product 0074                 _LCD_data 0999        ___wmul@multiplier 0070  
            _LCD_command 000D              ??__Umul8_16 0072                keyscane@x 007D  
               ___xxtofl 0BAE                 _batt_msg 0C68                 __ptext10 049D  
               __ptext11 09F6                 __ptext12 0064                 __ptext13 0999  
               __ptext14 0A1D                 __ptext15 000D                 _keyscane 0EA2  
             _LCD_output 0D6A                 init_ram0 098A   __Umul8_16@multiplicand 0070  
          ___fladd@signs 0078            ?_LCD_PIC_init 0070             ___fladd@aexp 0079  
           ___fladd@bexp 007A     __Umul8_16@multiplier 0078           LCD_command@hex 0072  
      __Umul8_16@product 0074  
